Archive member included because of file (symbol)

/Applications/microchip/xc32/v2.10/bin/bin/../../lib/gcc/pic32mx/4.8.3/../../../../pic32mx/lib/libmchp_peripheral_32MX370F512H.a(pcache.o)
                              build/default/production/src/hw.o (CheKseg0CacheOn)
/Applications/microchip/xc32/v2.10/bin/bin/../../lib/gcc/pic32mx/4.8.3/../../../../pic32mx/lib/libmchp_peripheral_32MX370F512H.a(int_disable_interrupts_lib.o)
                              build/default/production/src/hw.o (INTDisableInterrupts)
/Applications/microchip/xc32/v2.10/bin/bin/../../lib/gcc/pic32mx/4.8.3/../../../../pic32mx/lib/libmchp_peripheral_32MX370F512H.a(int_restore_interrupts_lib.o)
                              build/default/production/src/hw.o (INTRestoreInterrupts)
/Applications/microchip/xc32/v2.10/bin/bin/../../lib/gcc/pic32mx/4.8.3/../../../../pic32mx/lib/libmchp_peripheral_32MX370F512H.a(int_enable_mv_int_lib.o)
                              build/default/production/src/hw.o (INTEnableSystemMultiVectoredInt)
/Applications/microchip/xc32/v2.10/bin/bin/../../lib/gcc/pic32mx/4.8.3/../../../../pic32mx/lib/libmchp_peripheral_32MX370F512H.a(int_enable_interrupts_lib.o)
                              /Applications/microchip/xc32/v2.10/bin/bin/../../lib/gcc/pic32mx/4.8.3/../../../../pic32mx/lib/libmchp_peripheral_32MX370F512H.a(int_enable_mv_int_lib.o) (INTEnableInterrupts)
/Applications/microchip/xc32/v2.10/bin/bin/../../lib/gcc/pic32mx/4.8.3/libgcc.a(_umoddi3.o)
                              build/default/production/src/puzzle.o (__umoddi3)
/Applications/microchip/xc32/v2.10/bin/bin/../../lib/gcc/pic32mx/4.8.3/../../../../pic32mx/lib/libpic32.a(setjmp.o)
                              build/default/production/src/badge.o (setjmp)
/Applications/microchip/xc32/v2.10/bin/bin/../../lib/gcc/pic32mx/4.8.3/../../../../pic32mx/lib/libpic32.a(memcpy.o)
                              build/default/production/src/basic/tokenizer.o (memcpy)
/Applications/microchip/xc32/v2.10/bin/bin/../../lib/gcc/pic32mx/4.8.3/../../../../pic32mx/lib/libpic32.a(memset.o)
                              build/default/production/src/vt100.o (memset)
/Applications/microchip/xc32/v2.10/bin/bin/../../lib/gcc/pic32mx/4.8.3/../../../../pic32mx/lib/libpic32.a(strcmp.o)
                              build/default/production/src/badge.o (strcmp)
/Applications/microchip/xc32/v2.10/bin/bin/../../lib/gcc/pic32mx/4.8.3/../../../../pic32mx/lib/libpic32.a(strcpy.o)
                              build/default/production/src/basic/ubasic.o (strcpy)
/Applications/microchip/xc32/v2.10/bin/bin/../../lib/gcc/pic32mx/4.8.3/../../../../pic32mx/lib/libpic32.a(strlen.o)
                              build/default/production/src/basic/tokenizer_slow.o (strlen)
/Applications/microchip/xc32/v2.10/bin/bin/../../lib/gcc/pic32mx/4.8.3/../../../../pic32mx/lib/libpic32.a(default-bootstrap-exception-handler.o)
                              /Applications/microchip/xc32/v2.10/bin/bin/../../lib/gcc/pic32mx/4.8.3/../../../../pic32mx/lib/./proc/32MX370F512H/crt0_mips32r2.o (_bootstrap_exception_handler)
/Applications/microchip/xc32/v2.10/bin/bin/../../lib/gcc/pic32mx/4.8.3/../../../../pic32mx/lib/libpic32.a(default-on-reset.o)
                              /Applications/microchip/xc32/v2.10/bin/bin/../../lib/gcc/pic32mx/4.8.3/../../../../pic32mx/lib/./proc/32MX370F512H/crt0_mips32r2.o (_on_reset)
/Applications/microchip/xc32/v2.10/bin/bin/../../lib/gcc/pic32mx/4.8.3/../../../../pic32mx/lib/libpic32.a(default-on-bootstrap.o)
                              /Applications/microchip/xc32/v2.10/bin/bin/../../lib/gcc/pic32mx/4.8.3/../../../../pic32mx/lib/./proc/32MX370F512H/crt0_mips32r2.o (_on_bootstrap)
/Applications/microchip/xc32/v2.10/bin/bin/../../lib/gcc/pic32mx/4.8.3/../../../../pic32mx/lib/libpic32.a(default-nmi-handler.o)
                              /Applications/microchip/xc32/v2.10/bin/bin/../../lib/gcc/pic32mx/4.8.3/../../../../pic32mx/lib/./proc/32MX370F512H/crt0_mips32r2.o (_nmi_handler)
/Applications/microchip/xc32/v2.10/bin/bin/../../lib/gcc/pic32mx/4.8.3/../../../../pic32mx/lib/libpic32.a(pic32_data_init.o)
                              /Applications/microchip/xc32/v2.10/bin/bin/../../lib/gcc/pic32mx/4.8.3/../../../../pic32mx/lib/./proc/32MX370F512H/crt0_mips32r2.o (__pic32_data_init)
/Applications/microchip/xc32/v2.10/bin/bin/../../lib/gcc/pic32mx/4.8.3/../../../../pic32mx/lib/libpic32.a(general-exception.o)
                              /Applications/microchip/xc32/v2.10/bin/bin/../../lib/gcc/pic32mx/4.8.3/../../../../pic32mx/lib/./proc/32MX370F512H/crt0_mips32r2.o (_general_exception_context)
/Applications/microchip/xc32/v2.10/bin/bin/../../lib/gcc/pic32mx/4.8.3/../../../../pic32mx/lib/libpic32.a(vector0.o)
                              /Applications/microchip/xc32/v2.10/bin/bin/../../lib/gcc/pic32mx/4.8.3/../../../../pic32mx/lib/./proc/32MX370F512H/default_isr_vectors.o (__vector_dispatch_0)
/Applications/microchip/xc32/v2.10/bin/bin/../../lib/gcc/pic32mx/4.8.3/../../../../pic32mx/lib/libpic32.a(vector1.o)
                              /Applications/microchip/xc32/v2.10/bin/bin/../../lib/gcc/pic32mx/4.8.3/../../../../pic32mx/lib/./proc/32MX370F512H/default_isr_vectors.o (__vector_dispatch_1)
/Applications/microchip/xc32/v2.10/bin/bin/../../lib/gcc/pic32mx/4.8.3/../../../../pic32mx/lib/libpic32.a(vector2.o)
                              /Applications/microchip/xc32/v2.10/bin/bin/../../lib/gcc/pic32mx/4.8.3/../../../../pic32mx/lib/./proc/32MX370F512H/default_isr_vectors.o (__vector_dispatch_2)
/Applications/microchip/xc32/v2.10/bin/bin/../../lib/gcc/pic32mx/4.8.3/../../../../pic32mx/lib/libpic32.a(vector3.o)
                              /Applications/microchip/xc32/v2.10/bin/bin/../../lib/gcc/pic32mx/4.8.3/../../../../pic32mx/lib/./proc/32MX370F512H/default_isr_vectors.o (__vector_dispatch_3)
/Applications/microchip/xc32/v2.10/bin/bin/../../lib/gcc/pic32mx/4.8.3/../../../../pic32mx/lib/libpic32.a(vector5.o)
                              /Applications/microchip/xc32/v2.10/bin/bin/../../lib/gcc/pic32mx/4.8.3/../../../../pic32mx/lib/./proc/32MX370F512H/default_isr_vectors.o (__vector_dispatch_5)
/Applications/microchip/xc32/v2.10/bin/bin/../../lib/gcc/pic32mx/4.8.3/../../../../pic32mx/lib/libpic32.a(vector6.o)
                              /Applications/microchip/xc32/v2.10/bin/bin/../../lib/gcc/pic32mx/4.8.3/../../../../pic32mx/lib/./proc/32MX370F512H/default_isr_vectors.o (__vector_dispatch_6)
/Applications/microchip/xc32/v2.10/bin/bin/../../lib/gcc/pic32mx/4.8.3/../../../../pic32mx/lib/libpic32.a(vector7.o)
                              /Applications/microchip/xc32/v2.10/bin/bin/../../lib/gcc/pic32mx/4.8.3/../../../../pic32mx/lib/./proc/32MX370F512H/default_isr_vectors.o (__vector_dispatch_7)
/Applications/microchip/xc32/v2.10/bin/bin/../../lib/gcc/pic32mx/4.8.3/../../../../pic32mx/lib/libpic32.a(vector9.o)
                              /Applications/microchip/xc32/v2.10/bin/bin/../../lib/gcc/pic32mx/4.8.3/../../../../pic32mx/lib/./proc/32MX370F512H/default_isr_vectors.o (__vector_dispatch_9)
/Applications/microchip/xc32/v2.10/bin/bin/../../lib/gcc/pic32mx/4.8.3/../../../../pic32mx/lib/libpic32.a(vector10.o)
                              /Applications/microchip/xc32/v2.10/bin/bin/../../lib/gcc/pic32mx/4.8.3/../../../../pic32mx/lib/./proc/32MX370F512H/default_isr_vectors.o (__vector_dispatch_10)
/Applications/microchip/xc32/v2.10/bin/bin/../../lib/gcc/pic32mx/4.8.3/../../../../pic32mx/lib/libpic32.a(vector13.o)
                              /Applications/microchip/xc32/v2.10/bin/bin/../../lib/gcc/pic32mx/4.8.3/../../../../pic32mx/lib/./proc/32MX370F512H/default_isr_vectors.o (__vector_dispatch_13)
/Applications/microchip/xc32/v2.10/bin/bin/../../lib/gcc/pic32mx/4.8.3/../../../../pic32mx/lib/libpic32.a(vector14.o)
                              /Applications/microchip/xc32/v2.10/bin/bin/../../lib/gcc/pic32mx/4.8.3/../../../../pic32mx/lib/./proc/32MX370F512H/default_isr_vectors.o (__vector_dispatch_14)
/Applications/microchip/xc32/v2.10/bin/bin/../../lib/gcc/pic32mx/4.8.3/../../../../pic32mx/lib/libpic32.a(vector15.o)
                              /Applications/microchip/xc32/v2.10/bin/bin/../../lib/gcc/pic32mx/4.8.3/../../../../pic32mx/lib/./proc/32MX370F512H/default_isr_vectors.o (__vector_dispatch_15)
/Applications/microchip/xc32/v2.10/bin/bin/../../lib/gcc/pic32mx/4.8.3/../../../../pic32mx/lib/libpic32.a(vector17.o)
                              /Applications/microchip/xc32/v2.10/bin/bin/../../lib/gcc/pic32mx/4.8.3/../../../../pic32mx/lib/./proc/32MX370F512H/default_isr_vectors.o (__vector_dispatch_17)
/Applications/microchip/xc32/v2.10/bin/bin/../../lib/gcc/pic32mx/4.8.3/../../../../pic32mx/lib/libpic32.a(vector18.o)
                              /Applications/microchip/xc32/v2.10/bin/bin/../../lib/gcc/pic32mx/4.8.3/../../../../pic32mx/lib/./proc/32MX370F512H/default_isr_vectors.o (__vector_dispatch_18)
/Applications/microchip/xc32/v2.10/bin/bin/../../lib/gcc/pic32mx/4.8.3/../../../../pic32mx/lib/libpic32.a(vector19.o)
                              /Applications/microchip/xc32/v2.10/bin/bin/../../lib/gcc/pic32mx/4.8.3/../../../../pic32mx/lib/./proc/32MX370F512H/default_isr_vectors.o (__vector_dispatch_19)
/Applications/microchip/xc32/v2.10/bin/bin/../../lib/gcc/pic32mx/4.8.3/../../../../pic32mx/lib/libpic32.a(vector21.o)
                              /Applications/microchip/xc32/v2.10/bin/bin/../../lib/gcc/pic32mx/4.8.3/../../../../pic32mx/lib/./proc/32MX370F512H/default_isr_vectors.o (__vector_dispatch_21)
/Applications/microchip/xc32/v2.10/bin/bin/../../lib/gcc/pic32mx/4.8.3/../../../../pic32mx/lib/libpic32.a(vector22.o)
                              /Applications/microchip/xc32/v2.10/bin/bin/../../lib/gcc/pic32mx/4.8.3/../../../../pic32mx/lib/./proc/32MX370F512H/default_isr_vectors.o (__vector_dispatch_22)
/Applications/microchip/xc32/v2.10/bin/bin/../../lib/gcc/pic32mx/4.8.3/../../../../pic32mx/lib/libpic32.a(vector23.o)
                              /Applications/microchip/xc32/v2.10/bin/bin/../../lib/gcc/pic32mx/4.8.3/../../../../pic32mx/lib/./proc/32MX370F512H/default_isr_vectors.o (__vector_dispatch_23)
/Applications/microchip/xc32/v2.10/bin/bin/../../lib/gcc/pic32mx/4.8.3/../../../../pic32mx/lib/libpic32.a(vector24.o)
                              /Applications/microchip/xc32/v2.10/bin/bin/../../lib/gcc/pic32mx/4.8.3/../../../../pic32mx/lib/./proc/32MX370F512H/default_isr_vectors.o (__vector_dispatch_24)
/Applications/microchip/xc32/v2.10/bin/bin/../../lib/gcc/pic32mx/4.8.3/../../../../pic32mx/lib/libpic32.a(vector25.o)
                              /Applications/microchip/xc32/v2.10/bin/bin/../../lib/gcc/pic32mx/4.8.3/../../../../pic32mx/lib/./proc/32MX370F512H/default_isr_vectors.o (__vector_dispatch_25)
/Applications/microchip/xc32/v2.10/bin/bin/../../lib/gcc/pic32mx/4.8.3/../../../../pic32mx/lib/libpic32.a(vector26.o)
                              /Applications/microchip/xc32/v2.10/bin/bin/../../lib/gcc/pic32mx/4.8.3/../../../../pic32mx/lib/./proc/32MX370F512H/default_isr_vectors.o (__vector_dispatch_26)
/Applications/microchip/xc32/v2.10/bin/bin/../../lib/gcc/pic32mx/4.8.3/../../../../pic32mx/lib/libpic32.a(vector27.o)
                              /Applications/microchip/xc32/v2.10/bin/bin/../../lib/gcc/pic32mx/4.8.3/../../../../pic32mx/lib/./proc/32MX370F512H/default_isr_vectors.o (__vector_dispatch_27)
/Applications/microchip/xc32/v2.10/bin/bin/../../lib/gcc/pic32mx/4.8.3/../../../../pic32mx/lib/libpic32.a(vector28.o)
                              /Applications/microchip/xc32/v2.10/bin/bin/../../lib/gcc/pic32mx/4.8.3/../../../../pic32mx/lib/./proc/32MX370F512H/default_isr_vectors.o (__vector_dispatch_28)
/Applications/microchip/xc32/v2.10/bin/bin/../../lib/gcc/pic32mx/4.8.3/../../../../pic32mx/lib/libpic32.a(vector29.o)
                              /Applications/microchip/xc32/v2.10/bin/bin/../../lib/gcc/pic32mx/4.8.3/../../../../pic32mx/lib/./proc/32MX370F512H/default_isr_vectors.o (__vector_dispatch_29)
/Applications/microchip/xc32/v2.10/bin/bin/../../lib/gcc/pic32mx/4.8.3/../../../../pic32mx/lib/libpic32.a(vector30.o)
                              /Applications/microchip/xc32/v2.10/bin/bin/../../lib/gcc/pic32mx/4.8.3/../../../../pic32mx/lib/./proc/32MX370F512H/default_isr_vectors.o (__vector_dispatch_30)
/Applications/microchip/xc32/v2.10/bin/bin/../../lib/gcc/pic32mx/4.8.3/../../../../pic32mx/lib/libpic32.a(vector31.o)
                              /Applications/microchip/xc32/v2.10/bin/bin/../../lib/gcc/pic32mx/4.8.3/../../../../pic32mx/lib/./proc/32MX370F512H/default_isr_vectors.o (__vector_dispatch_31)
/Applications/microchip/xc32/v2.10/bin/bin/../../lib/gcc/pic32mx/4.8.3/../../../../pic32mx/lib/libpic32.a(vector32.o)
                              /Applications/microchip/xc32/v2.10/bin/bin/../../lib/gcc/pic32mx/4.8.3/../../../../pic32mx/lib/./proc/32MX370F512H/default_isr_vectors.o (__vector_dispatch_32)
/Applications/microchip/xc32/v2.10/bin/bin/../../lib/gcc/pic32mx/4.8.3/../../../../pic32mx/lib/libpic32.a(vector33.o)
                              /Applications/microchip/xc32/v2.10/bin/bin/../../lib/gcc/pic32mx/4.8.3/../../../../pic32mx/lib/./proc/32MX370F512H/default_isr_vectors.o (__vector_dispatch_33)
/Applications/microchip/xc32/v2.10/bin/bin/../../lib/gcc/pic32mx/4.8.3/../../../../pic32mx/lib/libpic32.a(vector34.o)
                              /Applications/microchip/xc32/v2.10/bin/bin/../../lib/gcc/pic32mx/4.8.3/../../../../pic32mx/lib/./proc/32MX370F512H/default_isr_vectors.o (__vector_dispatch_34)
/Applications/microchip/xc32/v2.10/bin/bin/../../lib/gcc/pic32mx/4.8.3/../../../../pic32mx/lib/libpic32.a(vector35.o)
                              /Applications/microchip/xc32/v2.10/bin/bin/../../lib/gcc/pic32mx/4.8.3/../../../../pic32mx/lib/./proc/32MX370F512H/default_isr_vectors.o (__vector_dispatch_35)
/Applications/microchip/xc32/v2.10/bin/bin/../../lib/gcc/pic32mx/4.8.3/../../../../pic32mx/lib/libpic32.a(vector36.o)
                              /Applications/microchip/xc32/v2.10/bin/bin/../../lib/gcc/pic32mx/4.8.3/../../../../pic32mx/lib/./proc/32MX370F512H/default_isr_vectors.o (__vector_dispatch_36)
/Applications/microchip/xc32/v2.10/bin/bin/../../lib/gcc/pic32mx/4.8.3/../../../../pic32mx/lib/libpic32.a(vector37.o)
                              /Applications/microchip/xc32/v2.10/bin/bin/../../lib/gcc/pic32mx/4.8.3/../../../../pic32mx/lib/./proc/32MX370F512H/default_isr_vectors.o (__vector_dispatch_37)
/Applications/microchip/xc32/v2.10/bin/bin/../../lib/gcc/pic32mx/4.8.3/../../../../pic32mx/lib/libpic32.a(vector38.o)
                              /Applications/microchip/xc32/v2.10/bin/bin/../../lib/gcc/pic32mx/4.8.3/../../../../pic32mx/lib/./proc/32MX370F512H/default_isr_vectors.o (__vector_dispatch_38)
/Applications/microchip/xc32/v2.10/bin/bin/../../lib/gcc/pic32mx/4.8.3/../../../../pic32mx/lib/libpic32.a(vector39.o)
                              /Applications/microchip/xc32/v2.10/bin/bin/../../lib/gcc/pic32mx/4.8.3/../../../../pic32mx/lib/./proc/32MX370F512H/default_isr_vectors.o (__vector_dispatch_39)
/Applications/microchip/xc32/v2.10/bin/bin/../../lib/gcc/pic32mx/4.8.3/../../../../pic32mx/lib/libpic32.a(vector40.o)
                              /Applications/microchip/xc32/v2.10/bin/bin/../../lib/gcc/pic32mx/4.8.3/../../../../pic32mx/lib/./proc/32MX370F512H/default_isr_vectors.o (__vector_dispatch_40)
/Applications/microchip/xc32/v2.10/bin/bin/../../lib/gcc/pic32mx/4.8.3/../../../../pic32mx/lib/libpic32.a(vector41.o)
                              /Applications/microchip/xc32/v2.10/bin/bin/../../lib/gcc/pic32mx/4.8.3/../../../../pic32mx/lib/./proc/32MX370F512H/default_isr_vectors.o (__vector_dispatch_41)
/Applications/microchip/xc32/v2.10/bin/bin/../../lib/gcc/pic32mx/4.8.3/../../../../pic32mx/lib/libpic32.a(vector42.o)
                              /Applications/microchip/xc32/v2.10/bin/bin/../../lib/gcc/pic32mx/4.8.3/../../../../pic32mx/lib/./proc/32MX370F512H/default_isr_vectors.o (__vector_dispatch_42)
/Applications/microchip/xc32/v2.10/bin/bin/../../lib/gcc/pic32mx/4.8.3/../../../../pic32mx/lib/libpic32.a(vector43.o)
                              /Applications/microchip/xc32/v2.10/bin/bin/../../lib/gcc/pic32mx/4.8.3/../../../../pic32mx/lib/./proc/32MX370F512H/default_isr_vectors.o (__vector_dispatch_43)
/Applications/microchip/xc32/v2.10/bin/bin/../../lib/gcc/pic32mx/4.8.3/../../../../pic32mx/lib/libpic32.a(vector44.o)
                              /Applications/microchip/xc32/v2.10/bin/bin/../../lib/gcc/pic32mx/4.8.3/../../../../pic32mx/lib/./proc/32MX370F512H/default_isr_vectors.o (__vector_dispatch_44)
/Applications/microchip/xc32/v2.10/bin/bin/../../lib/gcc/pic32mx/4.8.3/../../../../pic32mx/lib/libpic32.a(vector45.o)
                              /Applications/microchip/xc32/v2.10/bin/bin/../../lib/gcc/pic32mx/4.8.3/../../../../pic32mx/lib/./proc/32MX370F512H/default_isr_vectors.o (__vector_dispatch_45)
/Applications/microchip/xc32/v2.10/bin/bin/../../lib/gcc/pic32mx/4.8.3/../../../../pic32mx/lib/libpic32.a(default-general-exception-handler.o)
                              /Applications/microchip/xc32/v2.10/bin/bin/../../lib/gcc/pic32mx/4.8.3/../../../../pic32mx/lib/libpic32.a(general-exception.o) (_general_exception_handler)
/Applications/microchip/xc32/v2.10/bin/bin/../../lib/gcc/pic32mx/4.8.3/../../../../pic32mx/lib/libpic32.a(defaultinterrupt.o)
                              /Applications/microchip/xc32/v2.10/bin/bin/../../lib/gcc/pic32mx/4.8.3/../../../../pic32mx/lib/libpic32.a(vector0.o) (_DefaultInterrupt)
/Applications/microchip/xc32/v2.10/bin/bin/../../lib/gcc/pic32mx/4.8.3/../../../../pic32mx/lib/liblega-c.a(strcat.o)
                              build/default/production/src/badge.o (strcat)
/Applications/microchip/xc32/v2.10/bin/bin/../../lib/gcc/pic32mx/4.8.3/../../../../pic32mx/lib/liblega-c.a(strncmp.o)
                              build/default/production/src/basic/tokenizer_slow.o (strncmp)
/Applications/microchip/xc32/v2.10/bin/bin/../../lib/gcc/pic32mx/4.8.3/../../../../pic32mx/lib/liblega-c.a(strncpy.o)
                              build/default/production/src/basic/tokenizer_slow.o (strncpy)
/Applications/microchip/xc32/v2.10/bin/bin/../../lib/gcc/pic32mx/4.8.3/../../../../pic32mx/lib/liblega-c.a(strchr.o)
                              build/default/production/src/basic/tokenizer_slow.o (strchr)
/Applications/microchip/xc32/v2.10/bin/bin/../../lib/gcc/pic32mx/4.8.3/../../../../pic32mx/lib/liblega-c.a(memmove.o)
                              build/default/production/src/badge.o (memmove)
/Applications/microchip/xc32/v2.10/bin/bin/../../lib/gcc/pic32mx/4.8.3/../../../../pic32mx/lib/liblega-c.a(ctype.o)
                              build/default/production/src/basic/tokenizer_slow.o (_ctype)
/Applications/microchip/xc32/v2.10/bin/bin/../../lib/gcc/pic32mx/4.8.3/../../../../pic32mx/lib/liblega-c.a(ctypef.o)
                              build/default/production/src/Z80/simfun.o (toupper)
/Applications/microchip/xc32/v2.10/bin/bin/../../lib/gcc/pic32mx/4.8.3/../../../../pic32mx/lib/liblega-c.a(rand.o)
                              build/default/production/src/badge.o (rand)
/Applications/microchip/xc32/v2.10/bin/bin/../../lib/gcc/pic32mx/4.8.3/../../../../pic32mx/lib/liblega-c.a(strtol.o)
                              build/default/production/src/basic/tokenizer.o (strtol)
/Applications/microchip/xc32/v2.10/bin/bin/../../lib/gcc/pic32mx/4.8.3/../../../../pic32mx/lib/liblega-c.a(printf_cdnopuxX.eo)
                              build/default/production/src/basic/tokenizer.o (_printf_cdnopuxX)
/Applications/microchip/xc32/v2.10/bin/bin/../../lib/gcc/pic32mx/4.8.3/../../../../pic32mx/lib/liblega-c.a(sprintf_cdnopsuxX.eo)
                              build/default/production/src/basic/ubasic.o (_sprintf_cdnopsuxX)
/Applications/microchip/xc32/v2.10/bin/bin/../../lib/gcc/pic32mx/4.8.3/../../../../pic32mx/lib/liblega-c.a(sprintf_cdnopuxX.eo)
                              build/default/production/src/basic/ubasic.o (_sprintf_cdnopuxX)
/Applications/microchip/xc32/v2.10/bin/bin/../../lib/gcc/pic32mx/4.8.3/../../../../pic32mx/lib/liblega-c.a(sscanf_cdnopuxX.eo)
                              build/default/production/src/badge.o (_sscanf_cdnopuxX)
/Applications/microchip/xc32/v2.10/bin/bin/../../lib/gcc/pic32mx/4.8.3/../../../../pic32mx/lib/liblega-c.a(stubs.o)
                              /Applications/microchip/xc32/v2.10/bin/bin/../../lib/gcc/pic32mx/4.8.3/../../../../pic32mx/lib/liblega-c.a(rand.o) (_libc_private_storage)
/Applications/microchip/xc32/v2.10/bin/bin/../../lib/gcc/pic32mx/4.8.3/../../../../pic32mx/lib/liblega-c.a(fassert.o)
                              build/default/production/src/qrcodegen.o (_fassert)
/Applications/microchip/xc32/v2.10/bin/bin/../../lib/gcc/pic32mx/4.8.3/../../../../pic32mx/lib/liblega-c.a(errno.o)
                              /Applications/microchip/xc32/v2.10/bin/bin/../../lib/gcc/pic32mx/4.8.3/../../../../pic32mx/lib/liblega-c.a(strtol.o) (errno)
/Applications/microchip/xc32/v2.10/bin/bin/../../lib/gcc/pic32mx/4.8.3/../../../../pic32mx/lib/liblega-c.a(_doprnt_cdnopsuxX.eo)
                              /Applications/microchip/xc32/v2.10/bin/bin/../../lib/gcc/pic32mx/4.8.3/../../../../pic32mx/lib/liblega-c.a(sprintf_cdnopsuxX.eo) (_do_print_cdnopsuxX)
/Applications/microchip/xc32/v2.10/bin/bin/../../lib/gcc/pic32mx/4.8.3/../../../../pic32mx/lib/liblega-c.a(_doprnt_cdnopuxX.eo)
                              /Applications/microchip/xc32/v2.10/bin/bin/../../lib/gcc/pic32mx/4.8.3/../../../../pic32mx/lib/liblega-c.a(printf_cdnopuxX.eo) (_do_print_cdnopuxX)
/Applications/microchip/xc32/v2.10/bin/bin/../../lib/gcc/pic32mx/4.8.3/../../../../pic32mx/lib/liblega-c.a(_iobdata.o)
                              /Applications/microchip/xc32/v2.10/bin/bin/../../lib/gcc/pic32mx/4.8.3/../../../../pic32mx/lib/liblega-c.a(printf_cdnopuxX.eo) (_libc_data)
/Applications/microchip/xc32/v2.10/bin/bin/../../lib/gcc/pic32mx/4.8.3/../../../../pic32mx/lib/liblega-c.a(_iobfuncs.o)
                              /Applications/microchip/xc32/v2.10/bin/bin/../../lib/gcc/pic32mx/4.8.3/../../../../pic32mx/lib/liblega-c.a(_iobdata.o) (_filbuf_simple)
/Applications/microchip/xc32/v2.10/bin/bin/../../lib/gcc/pic32mx/4.8.3/../../../../pic32mx/lib/liblega-c.a(_iobstring.o)
                              /Applications/microchip/xc32/v2.10/bin/bin/../../lib/gcc/pic32mx/4.8.3/../../../../pic32mx/lib/liblega-c.a(sprintf_cdnopsuxX.eo) (_io_strfuncs)
/Applications/microchip/xc32/v2.10/bin/bin/../../lib/gcc/pic32mx/4.8.3/../../../../pic32mx/lib/liblega-c.a(fputc.o)
                              /Applications/microchip/xc32/v2.10/bin/bin/../../lib/gcc/pic32mx/4.8.3/../../../../pic32mx/lib/liblega-c.a(_doprnt_cdnopsuxX.eo) (fputc)
/Applications/microchip/xc32/v2.10/bin/bin/../../lib/gcc/pic32mx/4.8.3/../../../../pic32mx/lib/liblega-c.a(_doscan.o)
                              /Applications/microchip/xc32/v2.10/bin/bin/../../lib/gcc/pic32mx/4.8.3/../../../../pic32mx/lib/liblega-c.a(sscanf_cdnopuxX.eo) (do_scan)
/Applications/microchip/xc32/v2.10/bin/bin/../../lib/gcc/pic32mx/4.8.3/../../../../pic32mx/lib/liblega-c.a(fprintf.o)
                              /Applications/microchip/xc32/v2.10/bin/bin/../../lib/gcc/pic32mx/4.8.3/../../../../pic32mx/lib/liblega-c.a(fassert.o) (fprintf)
/Applications/microchip/xc32/v2.10/bin/bin/../../lib/gcc/pic32mx/4.8.3/../../../../pic32mx/lib/liblega-c.a(abort.o)
                              /Applications/microchip/xc32/v2.10/bin/bin/../../lib/gcc/pic32mx/4.8.3/../../../../pic32mx/lib/liblega-c.a(fassert.o) (abort)
/Applications/microchip/xc32/v2.10/bin/bin/../../lib/gcc/pic32mx/4.8.3/../../../../pic32mx/lib/liblega-c.a(malloc.o)
                              /Applications/microchip/xc32/v2.10/bin/bin/../../lib/gcc/pic32mx/4.8.3/../../../../pic32mx/lib/liblega-c.a(_doscan.o) (free)
/Applications/microchip/xc32/v2.10/bin/bin/../../lib/gcc/pic32mx/4.8.3/../../../../pic32mx/lib/liblega-c.a(malloc_realloc.o)
                              /Applications/microchip/xc32/v2.10/bin/bin/../../lib/gcc/pic32mx/4.8.3/../../../../pic32mx/lib/liblega-c.a(_doscan.o) (realloc)
/Applications/microchip/xc32/v2.10/bin/bin/../../lib/gcc/pic32mx/4.8.3/../../../../pic32mx/lib/liblega-c.a(strtoul.o)
                              /Applications/microchip/xc32/v2.10/bin/bin/../../lib/gcc/pic32mx/4.8.3/../../../../pic32mx/lib/liblega-c.a(_doscan.o) (strtoul)
/Applications/microchip/xc32/v2.10/bin/bin/../../lib/gcc/pic32mx/4.8.3/../../../../pic32mx/lib/liblega-c.a(strtoll.o)
                              /Applications/microchip/xc32/v2.10/bin/bin/../../lib/gcc/pic32mx/4.8.3/../../../../pic32mx/lib/liblega-c.a(_doscan.o) (strtoll)
/Applications/microchip/xc32/v2.10/bin/bin/../../lib/gcc/pic32mx/4.8.3/../../../../pic32mx/lib/liblega-c.a(strtoull.o)
                              /Applications/microchip/xc32/v2.10/bin/bin/../../lib/gcc/pic32mx/4.8.3/../../../../pic32mx/lib/liblega-c.a(_doscan.o) (strtoull)
/Applications/microchip/xc32/v2.10/bin/bin/../../lib/gcc/pic32mx/4.8.3/../../../../pic32mx/lib/liblega-c.a(strtod.o)
                              /Applications/microchip/xc32/v2.10/bin/bin/../../lib/gcc/pic32mx/4.8.3/../../../../pic32mx/lib/liblega-c.a(_doscan.o) (strtod)
/Applications/microchip/xc32/v2.10/bin/bin/../../lib/gcc/pic32mx/4.8.3/../../../../pic32mx/lib/liblega-c.a(strtof.o)
                              /Applications/microchip/xc32/v2.10/bin/bin/../../lib/gcc/pic32mx/4.8.3/../../../../pic32mx/lib/liblega-c.a(_doscan.o) (strtof)
/Applications/microchip/xc32/v2.10/bin/bin/../../lib/gcc/pic32mx/4.8.3/../../../../pic32mx/lib/liblega-c.a(fullexit.o)
                              /Applications/microchip/xc32/v2.10/bin/bin/../../lib/gcc/pic32mx/4.8.3/../../../../pic32mx/lib/liblega-c.a(_doscan.o) (__exfun_mx)
/Applications/microchip/xc32/v2.10/bin/bin/../../lib/gcc/pic32mx/4.8.3/../../../../pic32mx/lib/liblega-c.a(_doprnt.o)
                              /Applications/microchip/xc32/v2.10/bin/bin/../../lib/gcc/pic32mx/4.8.3/../../../../pic32mx/lib/liblega-c.a(fprintf.o) (do_print)
/Applications/microchip/xc32/v2.10/bin/bin/../../lib/gcc/pic32mx/4.8.3/../../../../pic32mx/lib/liblega-c.a(fgetc.o)
                              /Applications/microchip/xc32/v2.10/bin/bin/../../lib/gcc/pic32mx/4.8.3/../../../../pic32mx/lib/liblega-c.a(_doscan.o) (fgetc)
/Applications/microchip/xc32/v2.10/bin/bin/../../lib/gcc/pic32mx/4.8.3/../../../../pic32mx/lib/liblega-c.a(ungetc.o)
                              /Applications/microchip/xc32/v2.10/bin/bin/../../lib/gcc/pic32mx/4.8.3/../../../../pic32mx/lib/liblega-c.a(_doscan.o) (ungetc)
/Applications/microchip/xc32/v2.10/bin/bin/../../lib/gcc/pic32mx/4.8.3/../../../../pic32mx/lib/liblega-c.a(_ioinit.o)
                              /Applications/microchip/xc32/v2.10/bin/bin/../../lib/gcc/pic32mx/4.8.3/../../../../pic32mx/lib/liblega-c.a(ungetc.o) (_i_init)
/Applications/microchip/xc32/v2.10/bin/bin/../../lib/gcc/pic32mx/4.8.3/../../../../pic32mx/lib/liblega-c.a(_cleanup.o)
                              /Applications/microchip/xc32/v2.10/bin/bin/../../lib/gcc/pic32mx/4.8.3/../../../../pic32mx/lib/liblega-c.a(_ioinit.o) (_cleanup)
/Applications/microchip/xc32/v2.10/bin/bin/../../lib/gcc/pic32mx/4.8.3/../../../../pic32mx/lib/liblega-c.a(_bufproc.o)
                              /Applications/microchip/xc32/v2.10/bin/bin/../../lib/gcc/pic32mx/4.8.3/../../../../pic32mx/lib/liblega-c.a(_ioinit.o) (_bufalloc)
/Applications/microchip/xc32/v2.10/bin/bin/../../lib/gcc/pic32mx/4.8.3/../../../../pic32mx/lib/libm.a(dptofp.o)
                              /Applications/microchip/xc32/v2.10/bin/bin/../../lib/gcc/pic32mx/4.8.3/../../../../pic32mx/lib/liblega-c.a(strtod.o) (dptofp)
/Applications/microchip/xc32/v2.10/bin/bin/../../lib/gcc/pic32mx/4.8.3/../../../../pic32mx/lib/libm.a(fp32div.o)
                              /Applications/microchip/xc32/v2.10/bin/bin/../../lib/gcc/pic32mx/4.8.3/../../../../pic32mx/lib/liblega-c.a(_doprnt.o) (fpdiv)
/Applications/microchip/xc32/v2.10/bin/bin/../../lib/gcc/pic32mx/4.8.3/../../../../pic32mx/lib/libm.a(fp32mul.o)
                              /Applications/microchip/xc32/v2.10/bin/bin/../../lib/gcc/pic32mx/4.8.3/../../../../pic32mx/lib/liblega-c.a(_doprnt.o) (fpmul)
/Applications/microchip/xc32/v2.10/bin/bin/../../lib/gcc/pic32mx/4.8.3/../../../../pic32mx/lib/libm.a(fp32subadd.o)
                              /Applications/microchip/xc32/v2.10/bin/bin/../../lib/gcc/pic32mx/4.8.3/../../../../pic32mx/lib/liblega-c.a(_doprnt.o) (fpadd)
/Applications/microchip/xc32/v2.10/bin/bin/../../lib/gcc/pic32mx/4.8.3/../../../../pic32mx/lib/libm.a(fpcmp.o)
                              /Applications/microchip/xc32/v2.10/bin/bin/../../lib/gcc/pic32mx/4.8.3/../../../../pic32mx/lib/liblega-c.a(_doprnt.o) (fpcmp)
/Applications/microchip/xc32/v2.10/bin/bin/../../lib/gcc/pic32mx/4.8.3/../../../../pic32mx/lib/libm.a(fpfloo32.o)
                              build/default/production/src/user_program.o (floorf)
/Applications/microchip/xc32/v2.10/bin/bin/../../lib/gcc/pic32mx/4.8.3/../../../../pic32mx/lib/libm.a(fpmodf.o)
                              /Applications/microchip/xc32/v2.10/bin/bin/../../lib/gcc/pic32mx/4.8.3/../../../../pic32mx/lib/liblega-c.a(_doprnt.o) (modff)
/Applications/microchip/xc32/v2.10/bin/bin/../../lib/gcc/pic32mx/4.8.3/../../../../pic32mx/lib/libm.a(fptodp.o)
                              /Applications/microchip/xc32/v2.10/bin/bin/../../lib/gcc/pic32mx/4.8.3/../../../../pic32mx/lib/liblega-c.a(_doscan.o) (fptodp)
/Applications/microchip/xc32/v2.10/bin/bin/../../lib/gcc/pic32mx/4.8.3/../../../../pic32mx/lib/libm.a(fptoli.o)
                              build/default/production/src/user_program.o (fptosi)
/Applications/microchip/xc32/v2.10/bin/bin/../../lib/gcc/pic32mx/4.8.3/../../../../pic32mx/lib/libm.a(sitofp.o)
                              build/default/production/src/user_program.o (sitofp)
/Applications/microchip/xc32/v2.10/bin/bin/../../lib/gcc/pic32mx/4.8.3/../../../../pic32mx/lib/libm.a(__strtod.o)
                              /Applications/microchip/xc32/v2.10/bin/bin/../../lib/gcc/pic32mx/4.8.3/../../../../pic32mx/lib/liblega-c.a(strtod.o) (__strtod)
/Applications/microchip/xc32/v2.10/bin/bin/../../lib/gcc/pic32mx/4.8.3/../../../../pic32mx/lib/libm.a(__strtof.o)
                              /Applications/microchip/xc32/v2.10/bin/bin/../../lib/gcc/pic32mx/4.8.3/../../../../pic32mx/lib/liblega-c.a(strtof.o) (__strtof)
/Applications/microchip/xc32/v2.10/bin/bin/../../lib/gcc/pic32mx/4.8.3/../../../../pic32mx/lib/libm.a(dp32div.o)
                              /Applications/microchip/xc32/v2.10/bin/bin/../../lib/gcc/pic32mx/4.8.3/../../../../pic32mx/lib/libm.a(__strtod.o) (__divdf3)
/Applications/microchip/xc32/v2.10/bin/bin/../../lib/gcc/pic32mx/4.8.3/../../../../pic32mx/lib/libm.a(dp32mul.o)
                              /Applications/microchip/xc32/v2.10/bin/bin/../../lib/gcc/pic32mx/4.8.3/../../../../pic32mx/lib/libm.a(__strtod.o) (__muldf3)
/Applications/microchip/xc32/v2.10/bin/bin/../../lib/gcc/pic32mx/4.8.3/../../../../pic32mx/lib/libm.a(dp32subadd.o)
                              /Applications/microchip/xc32/v2.10/bin/bin/../../lib/gcc/pic32mx/4.8.3/../../../../pic32mx/lib/libm.a(__strtod.o) (__adddf3)
/Applications/microchip/xc32/v2.10/bin/bin/../../lib/gcc/pic32mx/4.8.3/../../../../pic32mx/lib/libm.a(litodp.o)
                              /Applications/microchip/xc32/v2.10/bin/bin/../../lib/gcc/pic32mx/4.8.3/../../../../pic32mx/lib/libm.a(__strtod.o) (__floatsidf)
/Applications/microchip/xc32/v2.10/bin/bin/../../lib/gcc/pic32mx/4.8.3/../../../../pic32mx/lib/libm.a(negdf2.o)
                              /Applications/microchip/xc32/v2.10/bin/bin/../../lib/gcc/pic32mx/4.8.3/../../../../pic32mx/lib/libm.a(__strtod.o) (__negdf2)
/Applications/microchip/xc32/v2.10/bin/bin/../../lib/gcc/pic32mx/4.8.3/../../../../pic32mx/lib/libm.a(negsf2.o)
                              /Applications/microchip/xc32/v2.10/bin/bin/../../lib/gcc/pic32mx/4.8.3/../../../../pic32mx/lib/libm.a(__strtof.o) (__negsf2)
/Applications/microchip/xc32/v2.10/bin/bin/../../lib/gcc/pic32mx/4.8.3/../../../../pic32mx/lib/libe.a(_ldexp.o)
                              /Applications/microchip/xc32/v2.10/bin/bin/../../lib/gcc/pic32mx/4.8.3/../../../../pic32mx/lib/libm.a(__strtod.o) (__ldexp)
/Applications/microchip/xc32/v2.10/bin/bin/../../lib/gcc/pic32mx/4.8.3/../../../../pic32mx/lib/libe.a(_ldexpf.o)
                              /Applications/microchip/xc32/v2.10/bin/bin/../../lib/gcc/pic32mx/4.8.3/../../../../pic32mx/lib/libm.a(__strtof.o) (__ldexpf)
/Applications/microchip/xc32/v2.10/bin/bin/../../lib/gcc/pic32mx/4.8.3/libgcc.a(_lshrdi3.o)
                              /Applications/microchip/xc32/v2.10/bin/bin/../../lib/gcc/pic32mx/4.8.3/../../../../pic32mx/lib/libe.a(_ldexp.o) (__lshrdi3)
/Applications/microchip/xc32/v2.10/bin/bin/../../lib/gcc/pic32mx/4.8.3/libgcc.a(_ashldi3.o)
                              /Applications/microchip/xc32/v2.10/bin/bin/../../lib/gcc/pic32mx/4.8.3/../../../../pic32mx/lib/libe.a(_ldexp.o) (__ashldi3)
/Applications/microchip/xc32/v2.10/bin/bin/../../lib/gcc/pic32mx/4.8.3/libgcc.a(_divdi3.o)
                              /Applications/microchip/xc32/v2.10/bin/bin/../../lib/gcc/pic32mx/4.8.3/../../../../pic32mx/lib/liblega-c.a(strtoll.o) (__divdi3)
/Applications/microchip/xc32/v2.10/bin/bin/../../lib/gcc/pic32mx/4.8.3/libgcc.a(_udivdi3.o)
                              /Applications/microchip/xc32/v2.10/bin/bin/../../lib/gcc/pic32mx/4.8.3/../../../../pic32mx/lib/liblega-c.a(_doprnt_cdnopsuxX.eo) (__udivdi3)
/Applications/microchip/xc32/v2.10/bin/bin/../../lib/gcc/pic32mx/4.8.3/../../../../pic32mx/lib/libpic32.a(sbrk.o)
                              /Applications/microchip/xc32/v2.10/bin/bin/../../lib/gcc/pic32mx/4.8.3/../../../../pic32mx/lib/liblega-c.a(malloc.o) (getpagesize)
/Applications/microchip/xc32/v2.10/bin/bin/../../lib/gcc/pic32mx/4.8.3/../../../../pic32mx/lib/libpic32.a(_exit.o)
                              /Applications/microchip/xc32/v2.10/bin/bin/../../lib/gcc/pic32mx/4.8.3/../../../../pic32mx/lib/liblega-c.a(fullexit.o) (_exit)
/Applications/microchip/xc32/v2.10/bin/bin/../../lib/gcc/pic32mx/4.8.3/../../../../pic32mx/lib/libpic32.a(isatty.o)
                              /Applications/microchip/xc32/v2.10/bin/bin/../../lib/gcc/pic32mx/4.8.3/../../../../pic32mx/lib/liblega-c.a(_ioinit.o) (isatty)
/Applications/microchip/xc32/v2.10/bin/bin/../../lib/gcc/pic32mx/4.8.3/../../../../pic32mx/lib/libpic32.a(_mon_getc.o)
                              /Applications/microchip/xc32/v2.10/bin/bin/../../lib/gcc/pic32mx/4.8.3/../../../../pic32mx/lib/liblega-c.a(_iobfuncs.o) (_mon_getc)
/Applications/microchip/xc32/v2.10/bin/bin/../../lib/gcc/pic32mx/4.8.3/../../../../pic32mx/lib/libpic32.a(_mon_write.o)
                              /Applications/microchip/xc32/v2.10/bin/bin/../../lib/gcc/pic32mx/4.8.3/../../../../pic32mx/lib/liblega-c.a(_iobfuncs.o) (_mon_write)
/Applications/microchip/xc32/v2.10/bin/bin/../../lib/gcc/pic32mx/4.8.3/../../../../pic32mx/lib/libpic32.a(xc32_uart.o)
                              /Applications/microchip/xc32/v2.10/bin/bin/../../lib/gcc/pic32mx/4.8.3/../../../../pic32mx/lib/libpic32.a(_mon_getc.o) (__XC_UART)
/Applications/microchip/xc32/v2.10/bin/bin/../../lib/gcc/pic32mx/4.8.3/../../../../pic32mx/lib/libpic32.a(_mon_putc.o)
                              /Applications/microchip/xc32/v2.10/bin/bin/../../lib/gcc/pic32mx/4.8.3/../../../../pic32mx/lib/libpic32.a(_mon_write.o) (_mon_putc)

Allocating common symbols
Common symbol       size              file

wait_until          0x4               build/default/production/src/tetrapuzz.o
conin_buffer_pointer
                    0x1               build/default/production/src/Z80/hwz.o
D                   0x1               build/default/production/src/Z80/simglb.o
unwritten           0x1               build/default/production/src/Z80/hwz.o
C_                  0x1               build/default/production/src/Z80/simglb.o
last_linenum        0x4               build/default/production/src/basic/ubasic.o
sstr                0x3               build/default/production/src/tetrapuzz.o
term_pointer        0x2               build/default/production/src/badge.o
j                   0x4               build/default/production/src/badge.o
wrk_ram             0x4               build/default/production/src/Z80/simglb.o
key_buffer          0xa               build/default/production/src/badge.o
get_stat            0x1               build/default/production/src/badge.o
A                   0x1               build/default/production/src/Z80/simglb.o
stdio_src           0x1               build/default/production/src/badge.o
jbuf                0xc0              build/default/production/src/badge.o
rnd_var2            0x2               build/default/production/src/hw.o
L_                  0x1               build/default/production/src/Z80/simglb.o
cpu_state           0x4               build/default/production/src/Z80/simglb.o
msg1                0x32              build/default/production/src/vt100.o
dirX                0x1               build/default/production/src/snake.o
cursor_blink_cnt    0x2               build/default/production/src/disp.o
F_                  0x4               build/default/production/src/Z80/simglb.o
cmd_line_key_stat_old
                    0x1               build/default/production/src/badge.o
x_loc               0x1               build/default/production/src/box_game.o
tprog               0x64              build/default/production/src/badge.o
state               0x2               build/default/production/src/tetrapuzz.o
cursor_visible      0x1               build/default/production/src/disp.o
disk_temp           0x80              build/default/production/src/Z80/hwz.o
TimingDelay         0x4               build/default/production/src/snake.o
vertical_shift      0x2               build/default/production/src/badge.o
B                   0x1               build/default/production/src/Z80/simglb.o
BOX_piece           0x4               build/default/production/src/box_game.o
_scanner            0x1c              build/default/production/src/basic/tokenizer.o
prog_ptr            0x2               build/default/production/src/badge.o
tail                0x2               build/default/production/src/snake.o
fruit               0x4               build/default/production/src/snake.o
change_dir          0x1               build/default/production/src/snake.o
C                   0x1               build/default/production/src/Z80/simglb.o
snake_length_limit  0x2               build/default/production/src/snake.o
head                0x2               build/default/production/src/snake.o
i                   0x4               build/default/production/src/badge.o
color_buffer        0x348             build/default/production/src/badge.o
interactive_mode    0x1               build/default/production/src/basic/ubasic.o
IFF                 0x1               build/default/production/src/Z80/simglb.o
iosim_mode          0x1               build/default/production/src/Z80/iosim.o
bufsize             0x2               build/default/production/src/vt100.o
B_                  0x1               build/default/production/src/Z80/simglb.o
disp_buffer         0x348             build/default/production/src/badge.o
D_                  0x1               build/default/production/src/Z80/simglb.o
sector              0x1               build/default/production/src/Z80/hwz.o
key_char            0x1               build/default/production/src/hw.o
conin_buffer        0x1e              build/default/production/src/Z80/hwz.o
IX                  0x2               build/default/production/src/Z80/simglb.o
E_                  0x1               build/default/production/src/Z80/simglb.o
cmd_line_pointer    0x1               build/default/production/src/badge.o
PC                  0x4               build/default/production/src/Z80/simglb.o
dirY                0x1               build/default/production/src/snake.o
A_                  0x1               build/default/production/src/Z80/simglb.o
bufhead             0x2               build/default/production/src/vt100.o
stdio_local_buff    0x19              build/default/production/src/badge.o
cmd_line_buff       0x50              build/default/production/src/badge.o
H                   0x1               build/default/production/src/Z80/simglb.o
brk_key             0x1               build/default/production/src/badge.o
STACK               0x4               build/default/production/src/Z80/simglb.o
cur_type            0x1               build/default/production/src/vt100.o
key                 0x1               build/default/production/src/hw.o
L                   0x1               build/default/production/src/Z80/simglb.o
rnd_var3            0x2               build/default/production/src/hw.o
y_loc               0x1               build/default/production/src/box_game.o
qrText              0x50              build/default/production/src/basic/ubasic.o
count               0x2               build/default/production/src/vt100.o
R                   0x4               build/default/production/src/Z80/simglb.o
cur_blink           0x1               build/default/production/src/vt100.o
int_mode            0x4               build/default/production/src/Z80/simglb.o
ticks               0x4               build/default/production/src/badge.o
char_out            0x1               build/default/production/src/badge.o
disk_temp_pointer   0x1               build/default/production/src/Z80/hwz.o
buf                 0x32              build/default/production/src/vt100.o
drive               0x1               build/default/production/src/Z80/hwz.o
BOX_location        0x1e              build/default/production/src/box_game.o
ram_disk            0x5800            build/default/production/src/Z80/hwz.o
color_composite     0x1               build/default/production/src/vt100.o
flash_buff          0x1000            build/default/production/src/Z80/hwz.o
E                   0x1               build/default/production/src/Z80/simglb.o
I                   0x1               build/default/production/src/Z80/simglb.o
buftail             0x2               build/default/production/src/vt100.o
cursor_blink_state  0x1               build/default/production/src/disp.o
start_after_wake    0x4               build/default/production/src/basic/ubasic.o
prompt              0x1               build/default/production/src/badge.o
ram                 0x10000           build/default/production/src/Z80/simglb.o
snake_length_current
                    0x2               build/default/production/src/snake.o
track               0x1               build/default/production/src/Z80/hwz.o
bprog               0x4001            build/default/production/src/badge.o
rnd_var1            0x2               build/default/production/src/hw.o
cpu_error           0x4               build/default/production/src/Z80/simglb.o
IY                  0x2               build/default/production/src/Z80/simglb.o
key_last            0x1               build/default/production/src/hw.o
len                 0x4               build/default/production/src/badge.o
corners             0x640             build/default/production/src/snake.o
H_                  0x1               build/default/production/src/Z80/simglb.o
F                   0x4               build/default/production/src/Z80/simglb.o
stdio_buff          0x32              build/default/production/src/badge.o
err_msg             0x28              build/default/production/src/basic/ubasic.o
int_type            0x4               build/default/production/src/Z80/simglb.o

Microchip PIC32 Memory-Usage Report

kseg0 Program-Memory Usage
section                    address  length [bytes]      (dec)  Description
-------                 ----------  -------------------------  -----------
.rodata                 0x9d000000        0x3e824      256036  Read-only const 
.text                   0x9d03e824         0xbdf4       48628  App's exec code 
.text                   0x9d04a618         0x7380       29568  App's exec code 
.text                   0x9d051998         0x4984       18820  App's exec code 
.text                   0x9d05631c         0x2020        8224  App's exec code 
.rodata                 0x9d05833c         0x1c74        7284  Read-only const 
.text                   0x9d059fb0         0x3560       13664  App's exec code 
.text                   0x9d05d510         0x2fa4       12196  App's exec code 
.text                   0x9d0604b4         0x29e0       10720  App's exec code 
.text                   0x9d062e94         0x2558        9560  App's exec code 
.text                   0x9d0653ec         0x2008        8200  App's exec code 
.rodata                 0x9d0673f4          0xd74        3444  Read-only const 
.text._fconvert         0x9d068168          0xd34        3380   
.text                   0x9d068e9c         0x1918        6424  App's exec code 
.text.do_scan           0x9d06a7b4          0xc18        3096   
.dinit                  0x9d06b3cc          0xb40        2880   
.text                   0x9d06bf0c         0x1658        5720  App's exec code 
.text.do_print          0x9d06d564          0xb10        2832   
.rodata                 0x9d06e074          0xa80        2688  Read-only const 
.text._do_print_cdnopsu 0x9d06eaf4          0xa70        2672   
.text                   0x9d06f564          0x914        2324  App's exec code 
.rodata                 0x9d06fe78          0x8dc        2268  Read-only const 
.text.malloc            0x9d070754          0x800        2048   
.text                   0x9d070f54          0x648        1608  App's exec code 
.text.realloc           0x9d07159c          0x584        1412   
.text                   0x9d071b20          0x4e8        1256  App's exec code 
.rodata                 0x9d072008          0x4d8        1240  Read-only const 
.text.dp32mul           0x9d0724e0          0x4b8        1208   
.text                   0x9d072998          0x918        2328  App's exec code 
.text                   0x9d0732b0          0x458        1112  App's exec code 
.text.dp32subadd        0x9d073708          0x430        1072   
.rodata                 0x9d073b38          0x800        2048  Read-only const 
.rodata                 0x9d074338          0x800        2048  Read-only const 
.rodata                 0x9d074b38          0x800        2048  Read-only const 
.rodata                 0x9d075338          0x800        2048  Read-only const 
.text.__strtod          0x9d075b38          0x3d0         976   
.text.strtoll           0x9d075f08          0x388         904   
.text                   0x9d076290          0x378         888  App's exec code 
.text.__strtof          0x9d076608          0x358         856   
.text.dp32mul           0x9d076960          0x32c         812   
.rodata                 0x9d076c8c          0x31c         796  Read-only const 
.text.strtoull          0x9d076fa8          0x30c         780   
.rodata                 0x9d0772b4          0x2c8         712  Read-only const 
.text._strtostr         0x9d07757c          0x284         644   
.text.strtoul           0x9d077800          0x280         640   
.text.strtol            0x9d077a80          0x27c         636   
.text.free              0x9d077cfc          0x27c         636   
.text.fpsubadd          0x9d077f78          0x278         632   
.rodata                 0x9d0781f0          0x480        1152  Read-only const 
.rodata                 0x9d078670          0x230         560  Read-only const 
.text.fp32div           0x9d0788a0          0x230         560   
.rodata                 0x9d078ad0          0x218         536  Read-only const 
.text                   0x9d078ce8          0x214         532  App's exec code 
.rodata                 0x9d078efc          0x1fc         508  Read-only const 
.text.fp32mul           0x9d0790f8          0x1bc         444   
.text.__ldexp           0x9d0792b4          0x1a8         424   
.text                   0x9d07945c          0x1a0         416  App's exec code 
.rodata                 0x9d0795fc          0x19c         412  Read-only const 
.text._sbrk_init        0x9d079798          0x194         404   
.text                   0x9d07992c          0x2dc         732  App's exec code 
.text                   0x9d079c08          0x168         360  App's exec code 
.text._outcnvrt         0x9d079d70          0x278         632   
.text.ungetc            0x9d079fe8          0x134         308   
.text.rounded.isra.0    0x9d07a11c          0x130         304   
.text                   0x9d07a24c          0x120         288  App's exec code 
.text.putget.2780       0x9d07a36c          0x10c         268   
.rodata                 0x9d07a478          0x104         260  Read-only const 
.text.malloc_trim       0x9d07a57c          0x104         260   
.text.__ldexpf          0x9d07a680          0x104         260   
.text.strncpy           0x9d07a784          0x100         256   
.text.dptofp            0x9d07a884          0x100         256   
.text._flsbuf_simple    0x9d07a984           0xfc         252   
.text.strchr            0x9d07aa80           0xf4         244   
.text._mon_getc         0x9d07ab74           0xe4         228   
.text.strncmp           0x9d07ac58           0xe0         224   
.text.general_exception 0x9d07ad38           0xdc         220   
.text.libm              0x9d07ae14           0xd4         212   
.text._mon_putc         0x9d07aee8           0xd4         212   
.text._sbrk             0x9d07afbc           0xc8         200   
.text.libm              0x9d07b084           0xb4         180   
.text                   0x9d07b138           0xac         172  App's exec code 
.text.repl.constprop.0  0x9d07b1e4           0xac         172   
.text.fputc             0x9d07b290           0xac         172   
.text.fptodp            0x9d07b33c           0xac         172   
.text                   0x9d07b3e8           0xa8         168  App's exec code 
.text._fullexit         0x9d07b490           0xa4         164   
.text._o_init           0x9d07b534           0xa4         164   
.rodata                 0x9d07b5d8           0xa0         160  Read-only const 
.text.strcat            0x9d07b678           0x9c         156   
.text._eat_white        0x9d07b714           0x9c         156   
.text.repl              0x9d07b7b0           0x9c         156   
.text.fpcmp             0x9d07b84c           0x9c         156   
.text._i_init           0x9d07b8e8           0x98         152   
.text                   0x9d07b980           0x84         132  App's exec code 
.text._fassert          0x9d07ba04           0x84         132   
.text._fflush_simple    0x9d07ba88           0x80         128   
.text._fwrite_simple    0x9d07bb08           0x80         128   
.text.fptoli            0x9d07bb88           0x80         128   
.rodata                 0x9d07bc08           0x7c         124  Read-only const 
.text.fgetc             0x9d07bc84           0x78         120   
.text.litodp            0x9d07bcfc           0x78         120   
.text._sscanf_cdnopuxX  0x9d07bd74           0x74         116   
.text                   0x9d07bde8           0x70         112  App's exec code 
.rodata                 0x9d07be58           0x70         112  Read-only const 
.text._sprintf_cdnopsux 0x9d07bec8           0x6c         108   
.rodata                 0x9d07bf34           0x6c         108  Read-only const 
.text.memmove           0x9d07bfa0           0x68         104   
.text.__sputn           0x9d07c008           0x68         104   
.text._bufalloc         0x9d07c070           0x68         104   
.text.gsgetc            0x9d07c0d8           0x64         100   
.text._buffree          0x9d07c13c           0x64         100   
.text                   0x9d07c1a0           0x60          96  App's exec code 
.text.sitofp            0x9d07c200           0x60          96   
.text.rand              0x9d07c260           0x58          88   
.text.main_entry        0x9d07c2b8           0x54          84   
.text.sbrk              0x9d07c30c           0x50          80   
.text._mon_write        0x9d07c35c           0x4c          76   
.text._bootstrap_except 0x9d07c3a8           0x48          72   
.text._general_exceptio 0x9d07c3f0           0x48          72   
.vector_default         0x9d07c438           0x48          72   
.rodata                 0x9d07c480           0x48          72  Read-only const 
.text                   0x9d07c4c8           0x44          68  App's exec code 
.text.srand             0x9d07c50c           0x44          68   
.text._printf_cdnopuxX  0x9d07c550           0x40          64   
.text._io_exit          0x9d07c590           0x40          64   
.text                   0x9d07c5d0           0x80         128  App's exec code 
.text._weak_pthread_onc 0x9d07c650           0x38          56   
.text.INTEnableSystemMu 0x9d07c688           0x34          52   
.text._filbuf_simple    0x9d07c6bc           0x34          52   
.text._fsync_simple     0x9d07c6f0           0x30          48   
.rodata                 0x9d07c720           0x30          48  Read-only const 
.text.fprintf           0x9d07c750           0x30          48   
.text._cleanup          0x9d07c780           0x30          48   
.text._stub_sbd_memlayo 0x9d07c7b0           0x2c          44   
.rodata                 0x9d07c7dc           0x28          40  Read-only const 
.text.strtod            0x9d07c804           0x28          40   
.text.tolower           0x9d07c82c           0x24          36   
.text.toupper           0x9d07c850           0x24          36   
.text.putchar           0x9d07c874           0x24          36   
.text.getchar           0x9d07c898           0x24          36   
.text.rand_r            0x9d07c8bc           0x20          32   
.rodata                 0x9d07c8dc           0x38          56  Read-only const 
.text.INTRestoreInterru 0x9d07c914           0x1c          28   
.text._vfprintf_cdnopsu 0x9d07c930           0x1c          28   
.text.putc              0x9d07c94c           0x1c          28   
.text.vfscanf           0x9d07c968           0x1c          28   
.text.strtof            0x9d07c984           0x1c          28   
.text.vfprintf          0x9d07c9a0           0x1c          28   
.text.getc              0x9d07c9bc           0x1c          28   
.text.negdf2            0x9d07c9d8           0x1c          28   
.text.CheKseg0CacheOff  0x9d07c9f4           0x18          24   
.text.CheKseg0CacheOn   0x9d07ca0c           0x18          24   
.text                   0x9d07ca24           0x18          24  App's exec code 
.text.isalnum           0x9d07ca3c           0x18          24   
.text.isalpha           0x9d07ca54           0x18          24   
.text.iscntrl           0x9d07ca6c           0x18          24   
.text.isdigit           0x9d07ca84           0x18          24   
.text.isgraph           0x9d07ca9c           0x18          24   
.text.islower           0x9d07cab4           0x18          24   
.text.isprint           0x9d07cacc           0x18          24   
.text.ispunct           0x9d07cae4           0x18          24   
.text.isspace           0x9d07cafc           0x18          24   
.text.isupper           0x9d07cb14           0x18          24   
.text.isxdigit          0x9d07cb2c           0x18          24   
.rodata                 0x9d07cb44           0x18          24  Read-only const 
.text._io_exit          0x9d07cb5c           0x14          20   
.rodata                 0x9d07cb70           0x14          20  Read-only const 
.text._io_exit          0x9d07cb84           0x14          20   
.rodata                 0x9d07cb98           0x14          20  Read-only const 
.text._io_exit          0x9d07cbac           0x14          20   
.text.negsf2            0x9d07cbc0           0x14          20   
.rodata                 0x9d07cbd4            0xc          12  Read-only const 
.text.abort             0x9d07cbe0            0xc          12   
.text.INTDisableInterru 0x9d07cbec            0x8           8   
.text.INTEnableInterrup 0x9d07cbf4            0x8           8   
.text._on_reset         0x9d07cbfc            0x8           8   
.text._on_bootstrap     0x9d07cc04            0x8           8   
.text.isascii           0x9d07cc0c            0x8           8   
.text.toascii           0x9d07cc14            0x8           8   
.text._tolower          0x9d07cc1c            0x8           8   
.text._toupper          0x9d07cc24            0x8           8   
.text._weak_pthread_mut 0x9d07cc2c            0x8           8   
.text._weak_pthread_mut 0x9d07cc34            0x8           8   
.text._weak_pthread_mut 0x9d07cc3c            0x8           8   
.text._weak_pthread_mut 0x9d07cc44            0x8           8   
.text._weak_pthread_mut 0x9d07cc4c            0x8           8   
.text._weak_pthread_mut 0x9d07cc54            0x8           8   
.text._weak_pthread_mut 0x9d07cc5c            0x8           8   
.text._weak_pthread_mut 0x9d07cc64            0x8           8   
.text._weak_pthread_mut 0x9d07cc6c            0x8           8   
.text._weak_pthread_mut 0x9d07cc74            0x8           8   
.text._weak_pthread_sys 0x9d07cc7c            0x8           8   
.text._weak_pthread_sig 0x9d07cc84            0x8           8   
.text._weak_pthread_sig 0x9d07cc8c            0x8           8   
.text._weak__pthread_cl 0x9d07cc94            0x8           8   
.text._weak__pthread_cl 0x9d07cc9c            0x8           8   
.text._weak__pthread_cl 0x9d07cca4            0x8           8   
.text._weak__pthread_cl 0x9d07ccac            0x8           8   
.text._weak_pthread_key 0x9d07ccb4            0x8           8   
.text._weak_pthread_set 0x9d07ccbc            0x8           8   
.text._weak_pthread_get 0x9d07ccc4            0x8           8   
.text._weak__libc_priva 0x9d07cccc            0x8           8   
.text._filbuf_string    0x9d07ccd4            0x8           8   
.text._flsbuf_string    0x9d07ccdc            0x8           8   
.text._fflush_string    0x9d07cce4            0x8           8   
.text._fwrite_string    0x9d07ccec            0x8           8   
.text._fsync_string     0x9d07ccf4            0x8           8   
.text.getpagesize       0x9d07ccfc            0x8           8   
.text._exit             0x9d07cd04            0x8           8   
.text.isatty            0x9d07cd0c            0x8           8   
      Total kseg0_program_mem used  :     0x7cd14      511252  97.5% of 0x80000

kseg0 Boot-Memory Usage
section                    address  length [bytes]      (dec)  Description
-------                 ----------  -------------------------  -----------
         Total kseg0_boot_mem used  :           0           0  <1% of 0x970

Exception-Memory Usage 
section                    address  length [bytes]      (dec)  Description
-------                 ----------  -------------------------  -----------
.app_excpt              0x9fc01180           0x10          16  General-Exception 
.vector_0               0x9fc01200            0x8           8  Interrupt Vector 0 
.vector_1               0x9fc01220            0x8           8  Interrupt Vector 1 
.vector_2               0x9fc01240            0x8           8  Interrupt Vector 2 
.vector_3               0x9fc01260            0x8           8  Interrupt Vector 3 
.vector_4               0x9fc01280            0x8           8  Interrupt Vector 4 
.vector_5               0x9fc012a0            0x8           8  Interrupt Vector 5 
.vector_6               0x9fc012c0            0x8           8  Interrupt Vector 6 
.vector_7               0x9fc012e0            0x8           8  Interrupt Vector 7 
.vector_8               0x9fc01300            0x8           8  Interrupt Vector 8 
.vector_9               0x9fc01320            0x8           8  Interrupt Vector 9 
.vector_10              0x9fc01340            0x8           8  Interrupt Vector 10 
.vector_11              0x9fc01360            0x8           8  Interrupt Vector 11 
.vector_12              0x9fc01380            0x8           8  Interrupt Vector 12 
.vector_13              0x9fc013a0            0x8           8  Interrupt Vector 13 
.vector_14              0x9fc013c0            0x8           8  Interrupt Vector 14 
.vector_15              0x9fc013e0            0x8           8  Interrupt Vector 15 
.vector_16              0x9fc01400            0x8           8  Interrupt Vector 16 
.vector_17              0x9fc01420            0x8           8  Interrupt Vector 17 
.vector_18              0x9fc01440            0x8           8  Interrupt Vector 18 
.vector_19              0x9fc01460            0x8           8  Interrupt Vector 19 
.vector_20              0x9fc01480            0x8           8  Interrupt Vector 20 
.vector_21              0x9fc014a0            0x8           8  Interrupt Vector 21 
.vector_22              0x9fc014c0            0x8           8  Interrupt Vector 22 
.vector_23              0x9fc014e0            0x8           8  Interrupt Vector 23 
.vector_24              0x9fc01500            0x8           8  Interrupt Vector 24 
.vector_25              0x9fc01520            0x8           8  Interrupt Vector 25 
.vector_26              0x9fc01540            0x8           8  Interrupt Vector 26 
.vector_27              0x9fc01560            0x8           8  Interrupt Vector 27 
.vector_28              0x9fc01580            0x8           8  Interrupt Vector 28 
.vector_29              0x9fc015a0            0x8           8  Interrupt Vector 29 
.vector_30              0x9fc015c0            0x8           8  Interrupt Vector 30 
.vector_31              0x9fc015e0            0x8           8  Interrupt Vector 31 
.vector_32              0x9fc01600            0x8           8  Interrupt Vector 32 
.vector_33              0x9fc01620            0x8           8  Interrupt Vector 33 
.vector_34              0x9fc01640            0x8           8  Interrupt Vector 34 
.vector_35              0x9fc01660            0x8           8  Interrupt Vector 35 
.vector_36              0x9fc01680            0x8           8  Interrupt Vector 36 
.vector_37              0x9fc016a0            0x8           8  Interrupt Vector 37 
.vector_38              0x9fc016c0            0x8           8  Interrupt Vector 38 
.vector_39              0x9fc016e0            0x8           8  Interrupt Vector 39 
.vector_40              0x9fc01700            0x8           8  Interrupt Vector 40 
.vector_41              0x9fc01720            0x8           8  Interrupt Vector 41 
.vector_42              0x9fc01740            0x8           8  Interrupt Vector 42 
.vector_43              0x9fc01760            0x8           8  Interrupt Vector 43 
.vector_44              0x9fc01780            0x8           8  Interrupt Vector 44 
.vector_45              0x9fc017a0            0x8           8  Interrupt Vector 45 
          Total exception_mem used  :       0x180         384  9.4% of 0x1000

kseg1 Boot-Memory Usage
section                    address  length [bytes]      (dec)  Description
-------                 ----------  -------------------------  -----------
.reset                  0xbfc00000          0x1a8         424  Reset handler 
.bev_excpt              0xbfc00380           0x10          16  BEV-Exception 
         Total kseg1_boot_mem used  :       0x1b8         440  37.7% of 0x490
        --------------------------------------------------------------------------
         Total Program Memory used  :     0x7d04c      512076  96.3% of 0x81e00
        --------------------------------------------------------------------------


kseg1 Data-Memory Usage
section                    address  length [bytes]      (dec)  Description
-------                 ----------  -------------------------  -----------
.sdata                  0xa0000000           0x34          52  Small init data 
.sbss                   0xa0000034          0x164         356  Small uninit data 
.bss                    0xa0000198        0x1b868      112744  Uninitialized data 
.data                   0xa001ba00          0x718        1816  Initialized data 
.bss                    0xa001c118          0x138         312  Uninitialized data 
.data                   0xa001c250           0xd4         212  Initialized data 
.bss                    0xa001c324           0x88         136  Uninitialized data 
.data                   0xa001c3ac           0x94         148  Initialized data 
.bss                    0xa001c440           0x68         104  Uninitialized data 
.data                   0xa001c4a8           0x30          48  Initialized data 
.bss                    0xa001c4d8           0x24          36  Uninitialized data 
.data                   0xa001c4fc           0x20          32  Initialized data 
.bss                    0xa001c51c            0x8           8  Uninitialized data 
         Total kseg1_data_mem used  :     0x1c524      116004  88.5% of 0x20000
        --------------------------------------------------------------------------
            Total Data Memory used  :     0x1c524      116004  88.5% of 0x20000
        --------------------------------------------------------------------------


Dynamic Data-Memory Reservation
section                    address  length [bytes]      (dec)  Description
-------                 ----------  -------------------------  -----------
heap                    0xa001c528           0x80         128  Reserved for heap 
stack                   0xa001c5c0         0x3a30       14896  Reserved for stack 

        --------------------------------------------------------------------------

Discarded input sections

 .reginfo       0x00000000       0x18 /Applications/microchip/xc32/v2.10/bin/bin/../../lib/gcc/pic32mx/4.8.3/../../../../pic32mx/lib/debug-exception-return.o
 .reginfo       0x00000000       0x18 build/default/production/src/basic/tokenizer.o
 .reginfo       0x00000000       0x18 build/default/production/src/basic/ubasic.o
 .reginfo       0x00000000       0x18 build/default/production/src/basic/tokenizer_fast.o
 .reginfo       0x00000000       0x18 build/default/production/src/basic/tokenizer_slow.o
 .reginfo       0x00000000       0x18 build/default/production/src/Z80/sim2.o
 .reginfo       0x00000000       0x18 build/default/production/src/Z80/sim4.o
 .reginfo       0x00000000       0x18 build/default/production/src/Z80/sim1.o
 .reginfo       0x00000000       0x18 build/default/production/src/Z80/sim3.o
 .reginfo       0x00000000       0x18 build/default/production/src/Z80/iosim.o
 .reginfo       0x00000000       0x18 build/default/production/src/Z80/sim5.o
 .reginfo       0x00000000       0x18 build/default/production/src/Z80/sim7.o
 .reginfo       0x00000000       0x18 build/default/production/src/Z80/simfun.o
 .reginfo       0x00000000       0x18 build/default/production/src/Z80/hwz.o
 .reginfo       0x00000000       0x18 build/default/production/src/Z80/simglb.o
 .reginfo       0x00000000       0x18 build/default/production/src/Z80/sim6.o
 .reginfo       0x00000000       0x18 build/default/production/src/badge.o
 .reginfo       0x00000000       0x18 build/default/production/src/box_game.o
 .reginfo       0x00000000       0x18 build/default/production/src/disp.o
 .reginfo       0x00000000       0x18 build/default/production/src/hw.o
 .reginfo       0x00000000       0x18 build/default/production/src/images.o
 .reginfo       0x00000000       0x18 build/default/production/src/main.o
 .reginfo       0x00000000       0x18 build/default/production/src/post.o
 .reginfo       0x00000000       0x18 build/default/production/src/snake.o
 .reginfo       0x00000000       0x18 build/default/production/src/splash.o
 .reginfo       0x00000000       0x18 build/default/production/src/tetrapuzz.o
 .reginfo       0x00000000       0x18 build/default/production/src/tune_player.o
 .reginfo       0x00000000       0x18 build/default/production/src/vt100.o
 .reginfo       0x00000000       0x18 build/default/production/src/nyancat.o
 .reginfo       0x00000000       0x18 build/default/production/src/user_program.o
 .reginfo       0x00000000       0x18 build/default/production/src/puzzle.o
 .reginfo       0x00000000       0x18 build/default/production/src/qrcodegen.o
 .reginfo       0x00000000       0x18 /Applications/microchip/xc32/v2.10/bin/bin/../../lib/gcc/pic32mx/4.8.3/../../../../pic32mx/lib/./proc/32MX370F512H/default_isr_vectors.o
 .discard       0x00000000       0xb8 /Applications/microchip/xc32/v2.10/bin/bin/../../lib/gcc/pic32mx/4.8.3/../../../../pic32mx/lib/./proc/32MX370F512H/default_isr_vectors.o
 .reginfo       0x00000000       0x18 /Applications/microchip/xc32/v2.10/bin/bin/../../lib/gcc/pic32mx/4.8.3/../../../../pic32mx/lib/pic32_software_reset.o
 .reginfo       0x00000000       0x18 /Applications/microchip/xc32/v2.10/bin/bin/../../lib/gcc/pic32mx/4.8.3/../../../../pic32mx/lib/./proc/32MX370F512H/processor.o
 .reginfo       0x00000000       0x18 /Applications/microchip/xc32/v2.10/bin/bin/../../lib/gcc/pic32mx/4.8.3/../../../../pic32mx/lib/libmchp_peripheral_32MX370F512H.a(pcache.o)
 .reginfo       0x00000000       0x18 /Applications/microchip/xc32/v2.10/bin/bin/../../lib/gcc/pic32mx/4.8.3/../../../../pic32mx/lib/libmchp_peripheral_32MX370F512H.a(int_disable_interrupts_lib.o)
 .reginfo       0x00000000       0x18 /Applications/microchip/xc32/v2.10/bin/bin/../../lib/gcc/pic32mx/4.8.3/../../../../pic32mx/lib/libmchp_peripheral_32MX370F512H.a(int_restore_interrupts_lib.o)
 .reginfo       0x00000000       0x18 /Applications/microchip/xc32/v2.10/bin/bin/../../lib/gcc/pic32mx/4.8.3/../../../../pic32mx/lib/libmchp_peripheral_32MX370F512H.a(int_enable_mv_int_lib.o)
 .reginfo       0x00000000       0x18 /Applications/microchip/xc32/v2.10/bin/bin/../../lib/gcc/pic32mx/4.8.3/../../../../pic32mx/lib/libmchp_peripheral_32MX370F512H.a(int_enable_interrupts_lib.o)
 .reginfo       0x00000000       0x18 /Applications/microchip/xc32/v2.10/bin/bin/../../lib/gcc/pic32mx/4.8.3/libgcc.a(_umoddi3.o)
 .reginfo       0x00000000       0x18 /Applications/microchip/xc32/v2.10/bin/bin/../../lib/gcc/pic32mx/4.8.3/../../../../pic32mx/lib/libpic32.a(setjmp.o)
 .reginfo       0x00000000       0x18 /Applications/microchip/xc32/v2.10/bin/bin/../../lib/gcc/pic32mx/4.8.3/../../../../pic32mx/lib/libpic32.a(memcpy.o)
 .reginfo       0x00000000       0x18 /Applications/microchip/xc32/v2.10/bin/bin/../../lib/gcc/pic32mx/4.8.3/../../../../pic32mx/lib/libpic32.a(memset.o)
 .reginfo       0x00000000       0x18 /Applications/microchip/xc32/v2.10/bin/bin/../../lib/gcc/pic32mx/4.8.3/../../../../pic32mx/lib/libpic32.a(strcmp.o)
 .reginfo       0x00000000       0x18 /Applications/microchip/xc32/v2.10/bin/bin/../../lib/gcc/pic32mx/4.8.3/../../../../pic32mx/lib/libpic32.a(strcpy.o)
 .reginfo       0x00000000       0x18 /Applications/microchip/xc32/v2.10/bin/bin/../../lib/gcc/pic32mx/4.8.3/../../../../pic32mx/lib/libpic32.a(strlen.o)
 .reginfo       0x00000000       0x18 /Applications/microchip/xc32/v2.10/bin/bin/../../lib/gcc/pic32mx/4.8.3/../../../../pic32mx/lib/libpic32.a(default-bootstrap-exception-handler.o)
 .reginfo       0x00000000       0x18 /Applications/microchip/xc32/v2.10/bin/bin/../../lib/gcc/pic32mx/4.8.3/../../../../pic32mx/lib/libpic32.a(default-on-reset.o)
 .reginfo       0x00000000       0x18 /Applications/microchip/xc32/v2.10/bin/bin/../../lib/gcc/pic32mx/4.8.3/../../../../pic32mx/lib/libpic32.a(default-on-bootstrap.o)
 .reginfo       0x00000000       0x18 /Applications/microchip/xc32/v2.10/bin/bin/../../lib/gcc/pic32mx/4.8.3/../../../../pic32mx/lib/libpic32.a(default-nmi-handler.o)
 .reginfo       0x00000000       0x18 /Applications/microchip/xc32/v2.10/bin/bin/../../lib/gcc/pic32mx/4.8.3/../../../../pic32mx/lib/libpic32.a(pic32_data_init.o)
 .reginfo       0x00000000       0x18 /Applications/microchip/xc32/v2.10/bin/bin/../../lib/gcc/pic32mx/4.8.3/../../../../pic32mx/lib/libpic32.a(general-exception.o)
 .reginfo       0x00000000       0x18 /Applications/microchip/xc32/v2.10/bin/bin/../../lib/gcc/pic32mx/4.8.3/../../../../pic32mx/lib/libpic32.a(vector0.o)
 .reginfo       0x00000000       0x18 /Applications/microchip/xc32/v2.10/bin/bin/../../lib/gcc/pic32mx/4.8.3/../../../../pic32mx/lib/libpic32.a(vector1.o)
 .reginfo       0x00000000       0x18 /Applications/microchip/xc32/v2.10/bin/bin/../../lib/gcc/pic32mx/4.8.3/../../../../pic32mx/lib/libpic32.a(vector2.o)
 .reginfo       0x00000000       0x18 /Applications/microchip/xc32/v2.10/bin/bin/../../lib/gcc/pic32mx/4.8.3/../../../../pic32mx/lib/libpic32.a(vector3.o)
 .reginfo       0x00000000       0x18 /Applications/microchip/xc32/v2.10/bin/bin/../../lib/gcc/pic32mx/4.8.3/../../../../pic32mx/lib/libpic32.a(vector5.o)
 .reginfo       0x00000000       0x18 /Applications/microchip/xc32/v2.10/bin/bin/../../lib/gcc/pic32mx/4.8.3/../../../../pic32mx/lib/libpic32.a(vector6.o)
 .reginfo       0x00000000       0x18 /Applications/microchip/xc32/v2.10/bin/bin/../../lib/gcc/pic32mx/4.8.3/../../../../pic32mx/lib/libpic32.a(vector7.o)
 .reginfo       0x00000000       0x18 /Applications/microchip/xc32/v2.10/bin/bin/../../lib/gcc/pic32mx/4.8.3/../../../../pic32mx/lib/libpic32.a(vector9.o)
 .reginfo       0x00000000       0x18 /Applications/microchip/xc32/v2.10/bin/bin/../../lib/gcc/pic32mx/4.8.3/../../../../pic32mx/lib/libpic32.a(vector10.o)
 .reginfo       0x00000000       0x18 /Applications/microchip/xc32/v2.10/bin/bin/../../lib/gcc/pic32mx/4.8.3/../../../../pic32mx/lib/libpic32.a(vector13.o)
 .reginfo       0x00000000       0x18 /Applications/microchip/xc32/v2.10/bin/bin/../../lib/gcc/pic32mx/4.8.3/../../../../pic32mx/lib/libpic32.a(vector14.o)
 .reginfo       0x00000000       0x18 /Applications/microchip/xc32/v2.10/bin/bin/../../lib/gcc/pic32mx/4.8.3/../../../../pic32mx/lib/libpic32.a(vector15.o)
 .reginfo       0x00000000       0x18 /Applications/microchip/xc32/v2.10/bin/bin/../../lib/gcc/pic32mx/4.8.3/../../../../pic32mx/lib/libpic32.a(vector17.o)
 .reginfo       0x00000000       0x18 /Applications/microchip/xc32/v2.10/bin/bin/../../lib/gcc/pic32mx/4.8.3/../../../../pic32mx/lib/libpic32.a(vector18.o)
 .reginfo       0x00000000       0x18 /Applications/microchip/xc32/v2.10/bin/bin/../../lib/gcc/pic32mx/4.8.3/../../../../pic32mx/lib/libpic32.a(vector19.o)
 .reginfo       0x00000000       0x18 /Applications/microchip/xc32/v2.10/bin/bin/../../lib/gcc/pic32mx/4.8.3/../../../../pic32mx/lib/libpic32.a(vector21.o)
 .reginfo       0x00000000       0x18 /Applications/microchip/xc32/v2.10/bin/bin/../../lib/gcc/pic32mx/4.8.3/../../../../pic32mx/lib/libpic32.a(vector22.o)
 .reginfo       0x00000000       0x18 /Applications/microchip/xc32/v2.10/bin/bin/../../lib/gcc/pic32mx/4.8.3/../../../../pic32mx/lib/libpic32.a(vector23.o)
 .reginfo       0x00000000       0x18 /Applications/microchip/xc32/v2.10/bin/bin/../../lib/gcc/pic32mx/4.8.3/../../../../pic32mx/lib/libpic32.a(vector24.o)
 .reginfo       0x00000000       0x18 /Applications/microchip/xc32/v2.10/bin/bin/../../lib/gcc/pic32mx/4.8.3/../../../../pic32mx/lib/libpic32.a(vector25.o)
 .reginfo       0x00000000       0x18 /Applications/microchip/xc32/v2.10/bin/bin/../../lib/gcc/pic32mx/4.8.3/../../../../pic32mx/lib/libpic32.a(vector26.o)
 .reginfo       0x00000000       0x18 /Applications/microchip/xc32/v2.10/bin/bin/../../lib/gcc/pic32mx/4.8.3/../../../../pic32mx/lib/libpic32.a(vector27.o)
 .reginfo       0x00000000       0x18 /Applications/microchip/xc32/v2.10/bin/bin/../../lib/gcc/pic32mx/4.8.3/../../../../pic32mx/lib/libpic32.a(vector28.o)
 .reginfo       0x00000000       0x18 /Applications/microchip/xc32/v2.10/bin/bin/../../lib/gcc/pic32mx/4.8.3/../../../../pic32mx/lib/libpic32.a(vector29.o)
 .reginfo       0x00000000       0x18 /Applications/microchip/xc32/v2.10/bin/bin/../../lib/gcc/pic32mx/4.8.3/../../../../pic32mx/lib/libpic32.a(vector30.o)
 .reginfo       0x00000000       0x18 /Applications/microchip/xc32/v2.10/bin/bin/../../lib/gcc/pic32mx/4.8.3/../../../../pic32mx/lib/libpic32.a(vector31.o)
 .reginfo       0x00000000       0x18 /Applications/microchip/xc32/v2.10/bin/bin/../../lib/gcc/pic32mx/4.8.3/../../../../pic32mx/lib/libpic32.a(vector32.o)
 .reginfo       0x00000000       0x18 /Applications/microchip/xc32/v2.10/bin/bin/../../lib/gcc/pic32mx/4.8.3/../../../../pic32mx/lib/libpic32.a(vector33.o)
 .reginfo       0x00000000       0x18 /Applications/microchip/xc32/v2.10/bin/bin/../../lib/gcc/pic32mx/4.8.3/../../../../pic32mx/lib/libpic32.a(vector34.o)
 .reginfo       0x00000000       0x18 /Applications/microchip/xc32/v2.10/bin/bin/../../lib/gcc/pic32mx/4.8.3/../../../../pic32mx/lib/libpic32.a(vector35.o)
 .reginfo       0x00000000       0x18 /Applications/microchip/xc32/v2.10/bin/bin/../../lib/gcc/pic32mx/4.8.3/../../../../pic32mx/lib/libpic32.a(vector36.o)
 .reginfo       0x00000000       0x18 /Applications/microchip/xc32/v2.10/bin/bin/../../lib/gcc/pic32mx/4.8.3/../../../../pic32mx/lib/libpic32.a(vector37.o)
 .reginfo       0x00000000       0x18 /Applications/microchip/xc32/v2.10/bin/bin/../../lib/gcc/pic32mx/4.8.3/../../../../pic32mx/lib/libpic32.a(vector38.o)
 .reginfo       0x00000000       0x18 /Applications/microchip/xc32/v2.10/bin/bin/../../lib/gcc/pic32mx/4.8.3/../../../../pic32mx/lib/libpic32.a(vector39.o)
 .reginfo       0x00000000       0x18 /Applications/microchip/xc32/v2.10/bin/bin/../../lib/gcc/pic32mx/4.8.3/../../../../pic32mx/lib/libpic32.a(vector40.o)
 .reginfo       0x00000000       0x18 /Applications/microchip/xc32/v2.10/bin/bin/../../lib/gcc/pic32mx/4.8.3/../../../../pic32mx/lib/libpic32.a(vector41.o)
 .reginfo       0x00000000       0x18 /Applications/microchip/xc32/v2.10/bin/bin/../../lib/gcc/pic32mx/4.8.3/../../../../pic32mx/lib/libpic32.a(vector42.o)
 .reginfo       0x00000000       0x18 /Applications/microchip/xc32/v2.10/bin/bin/../../lib/gcc/pic32mx/4.8.3/../../../../pic32mx/lib/libpic32.a(vector43.o)
 .reginfo       0x00000000       0x18 /Applications/microchip/xc32/v2.10/bin/bin/../../lib/gcc/pic32mx/4.8.3/../../../../pic32mx/lib/libpic32.a(vector44.o)
 .reginfo       0x00000000       0x18 /Applications/microchip/xc32/v2.10/bin/bin/../../lib/gcc/pic32mx/4.8.3/../../../../pic32mx/lib/libpic32.a(vector45.o)
 .reginfo       0x00000000       0x18 /Applications/microchip/xc32/v2.10/bin/bin/../../lib/gcc/pic32mx/4.8.3/../../../../pic32mx/lib/libpic32.a(default-general-exception-handler.o)
 .reginfo       0x00000000       0x18 /Applications/microchip/xc32/v2.10/bin/bin/../../lib/gcc/pic32mx/4.8.3/../../../../pic32mx/lib/libpic32.a(defaultinterrupt.o)
 .reginfo       0x00000000       0x18 /Applications/microchip/xc32/v2.10/bin/bin/../../lib/gcc/pic32mx/4.8.3/../../../../pic32mx/lib/liblega-c.a(strcat.o)
 .reginfo       0x00000000       0x18 /Applications/microchip/xc32/v2.10/bin/bin/../../lib/gcc/pic32mx/4.8.3/../../../../pic32mx/lib/liblega-c.a(strncmp.o)
 .reginfo       0x00000000       0x18 /Applications/microchip/xc32/v2.10/bin/bin/../../lib/gcc/pic32mx/4.8.3/../../../../pic32mx/lib/liblega-c.a(strncpy.o)
 .reginfo       0x00000000       0x18 /Applications/microchip/xc32/v2.10/bin/bin/../../lib/gcc/pic32mx/4.8.3/../../../../pic32mx/lib/liblega-c.a(strchr.o)
 .reginfo       0x00000000       0x18 /Applications/microchip/xc32/v2.10/bin/bin/../../lib/gcc/pic32mx/4.8.3/../../../../pic32mx/lib/liblega-c.a(memmove.o)
 .reginfo       0x00000000       0x18 /Applications/microchip/xc32/v2.10/bin/bin/../../lib/gcc/pic32mx/4.8.3/../../../../pic32mx/lib/liblega-c.a(ctype.o)
 .reginfo       0x00000000       0x18 /Applications/microchip/xc32/v2.10/bin/bin/../../lib/gcc/pic32mx/4.8.3/../../../../pic32mx/lib/liblega-c.a(ctypef.o)
 .reginfo       0x00000000       0x18 /Applications/microchip/xc32/v2.10/bin/bin/../../lib/gcc/pic32mx/4.8.3/../../../../pic32mx/lib/liblega-c.a(rand.o)
 .reginfo       0x00000000       0x18 /Applications/microchip/xc32/v2.10/bin/bin/../../lib/gcc/pic32mx/4.8.3/../../../../pic32mx/lib/liblega-c.a(strtol.o)
 .reginfo       0x00000000       0x18 /Applications/microchip/xc32/v2.10/bin/bin/../../lib/gcc/pic32mx/4.8.3/../../../../pic32mx/lib/liblega-c.a(printf_cdnopuxX.eo)
 .reginfo       0x00000000       0x18 /Applications/microchip/xc32/v2.10/bin/bin/../../lib/gcc/pic32mx/4.8.3/../../../../pic32mx/lib/liblega-c.a(sprintf_cdnopsuxX.eo)
 .reginfo       0x00000000       0x18 /Applications/microchip/xc32/v2.10/bin/bin/../../lib/gcc/pic32mx/4.8.3/../../../../pic32mx/lib/liblega-c.a(sscanf_cdnopuxX.eo)
 .reginfo       0x00000000       0x18 /Applications/microchip/xc32/v2.10/bin/bin/../../lib/gcc/pic32mx/4.8.3/../../../../pic32mx/lib/liblega-c.a(stubs.o)
 .reginfo       0x00000000       0x18 /Applications/microchip/xc32/v2.10/bin/bin/../../lib/gcc/pic32mx/4.8.3/../../../../pic32mx/lib/liblega-c.a(fassert.o)
 .reginfo       0x00000000       0x18 /Applications/microchip/xc32/v2.10/bin/bin/../../lib/gcc/pic32mx/4.8.3/../../../../pic32mx/lib/liblega-c.a(errno.o)
 .reginfo       0x00000000       0x18 /Applications/microchip/xc32/v2.10/bin/bin/../../lib/gcc/pic32mx/4.8.3/../../../../pic32mx/lib/liblega-c.a(_doprnt_cdnopsuxX.eo)
 .reginfo       0x00000000       0x18 /Applications/microchip/xc32/v2.10/bin/bin/../../lib/gcc/pic32mx/4.8.3/../../../../pic32mx/lib/liblega-c.a(_iobdata.o)
 .reginfo       0x00000000       0x18 /Applications/microchip/xc32/v2.10/bin/bin/../../lib/gcc/pic32mx/4.8.3/../../../../pic32mx/lib/liblega-c.a(_iobfuncs.o)
 .reginfo       0x00000000       0x18 /Applications/microchip/xc32/v2.10/bin/bin/../../lib/gcc/pic32mx/4.8.3/../../../../pic32mx/lib/liblega-c.a(_iobstring.o)
 .reginfo       0x00000000       0x18 /Applications/microchip/xc32/v2.10/bin/bin/../../lib/gcc/pic32mx/4.8.3/../../../../pic32mx/lib/liblega-c.a(fputc.o)
 .reginfo       0x00000000       0x18 /Applications/microchip/xc32/v2.10/bin/bin/../../lib/gcc/pic32mx/4.8.3/../../../../pic32mx/lib/liblega-c.a(_doscan.o)
 .reginfo       0x00000000       0x18 /Applications/microchip/xc32/v2.10/bin/bin/../../lib/gcc/pic32mx/4.8.3/../../../../pic32mx/lib/liblega-c.a(fprintf.o)
 .reginfo       0x00000000       0x18 /Applications/microchip/xc32/v2.10/bin/bin/../../lib/gcc/pic32mx/4.8.3/../../../../pic32mx/lib/liblega-c.a(abort.o)
 .reginfo       0x00000000       0x18 /Applications/microchip/xc32/v2.10/bin/bin/../../lib/gcc/pic32mx/4.8.3/../../../../pic32mx/lib/liblega-c.a(malloc.o)
 .reginfo       0x00000000       0x18 /Applications/microchip/xc32/v2.10/bin/bin/../../lib/gcc/pic32mx/4.8.3/../../../../pic32mx/lib/liblega-c.a(malloc_realloc.o)
 .reginfo       0x00000000       0x18 /Applications/microchip/xc32/v2.10/bin/bin/../../lib/gcc/pic32mx/4.8.3/../../../../pic32mx/lib/liblega-c.a(strtoul.o)
 .reginfo       0x00000000       0x18 /Applications/microchip/xc32/v2.10/bin/bin/../../lib/gcc/pic32mx/4.8.3/../../../../pic32mx/lib/liblega-c.a(strtoll.o)
 .reginfo       0x00000000       0x18 /Applications/microchip/xc32/v2.10/bin/bin/../../lib/gcc/pic32mx/4.8.3/../../../../pic32mx/lib/liblega-c.a(strtoull.o)
 .reginfo       0x00000000       0x18 /Applications/microchip/xc32/v2.10/bin/bin/../../lib/gcc/pic32mx/4.8.3/../../../../pic32mx/lib/liblega-c.a(strtod.o)
 .reginfo       0x00000000       0x18 /Applications/microchip/xc32/v2.10/bin/bin/../../lib/gcc/pic32mx/4.8.3/../../../../pic32mx/lib/liblega-c.a(strtof.o)
 .reginfo       0x00000000       0x18 /Applications/microchip/xc32/v2.10/bin/bin/../../lib/gcc/pic32mx/4.8.3/../../../../pic32mx/lib/liblega-c.a(fullexit.o)
 .reginfo       0x00000000       0x18 /Applications/microchip/xc32/v2.10/bin/bin/../../lib/gcc/pic32mx/4.8.3/../../../../pic32mx/lib/liblega-c.a(_doprnt.o)
 .reginfo       0x00000000       0x18 /Applications/microchip/xc32/v2.10/bin/bin/../../lib/gcc/pic32mx/4.8.3/../../../../pic32mx/lib/liblega-c.a(fgetc.o)
 .reginfo       0x00000000       0x18 /Applications/microchip/xc32/v2.10/bin/bin/../../lib/gcc/pic32mx/4.8.3/../../../../pic32mx/lib/liblega-c.a(ungetc.o)
 .reginfo       0x00000000       0x18 /Applications/microchip/xc32/v2.10/bin/bin/../../lib/gcc/pic32mx/4.8.3/../../../../pic32mx/lib/liblega-c.a(_ioinit.o)
 .reginfo       0x00000000       0x18 /Applications/microchip/xc32/v2.10/bin/bin/../../lib/gcc/pic32mx/4.8.3/../../../../pic32mx/lib/liblega-c.a(_cleanup.o)
 .reginfo       0x00000000       0x18 /Applications/microchip/xc32/v2.10/bin/bin/../../lib/gcc/pic32mx/4.8.3/../../../../pic32mx/lib/liblega-c.a(_bufproc.o)
 .reginfo       0x00000000       0x18 /Applications/microchip/xc32/v2.10/bin/bin/../../lib/gcc/pic32mx/4.8.3/../../../../pic32mx/lib/libm.a(dptofp.o)
 .reginfo       0x00000000       0x18 /Applications/microchip/xc32/v2.10/bin/bin/../../lib/gcc/pic32mx/4.8.3/../../../../pic32mx/lib/libm.a(fp32div.o)
 .reginfo       0x00000000       0x18 /Applications/microchip/xc32/v2.10/bin/bin/../../lib/gcc/pic32mx/4.8.3/../../../../pic32mx/lib/libm.a(fp32mul.o)
 .reginfo       0x00000000       0x18 /Applications/microchip/xc32/v2.10/bin/bin/../../lib/gcc/pic32mx/4.8.3/../../../../pic32mx/lib/libm.a(fp32subadd.o)
 .reginfo       0x00000000       0x18 /Applications/microchip/xc32/v2.10/bin/bin/../../lib/gcc/pic32mx/4.8.3/../../../../pic32mx/lib/libm.a(fpcmp.o)
 .reginfo       0x00000000       0x18 /Applications/microchip/xc32/v2.10/bin/bin/../../lib/gcc/pic32mx/4.8.3/../../../../pic32mx/lib/libm.a(fpfloo32.o)
 .reginfo       0x00000000       0x18 /Applications/microchip/xc32/v2.10/bin/bin/../../lib/gcc/pic32mx/4.8.3/../../../../pic32mx/lib/libm.a(fpmodf.o)
 .reginfo       0x00000000       0x18 /Applications/microchip/xc32/v2.10/bin/bin/../../lib/gcc/pic32mx/4.8.3/../../../../pic32mx/lib/libm.a(fptodp.o)
 .reginfo       0x00000000       0x18 /Applications/microchip/xc32/v2.10/bin/bin/../../lib/gcc/pic32mx/4.8.3/../../../../pic32mx/lib/libm.a(fptoli.o)
 .reginfo       0x00000000       0x18 /Applications/microchip/xc32/v2.10/bin/bin/../../lib/gcc/pic32mx/4.8.3/../../../../pic32mx/lib/libm.a(sitofp.o)
 .reginfo       0x00000000       0x18 /Applications/microchip/xc32/v2.10/bin/bin/../../lib/gcc/pic32mx/4.8.3/../../../../pic32mx/lib/libm.a(__strtod.o)
 .reginfo       0x00000000       0x18 /Applications/microchip/xc32/v2.10/bin/bin/../../lib/gcc/pic32mx/4.8.3/../../../../pic32mx/lib/libm.a(__strtof.o)
 .reginfo       0x00000000       0x18 /Applications/microchip/xc32/v2.10/bin/bin/../../lib/gcc/pic32mx/4.8.3/../../../../pic32mx/lib/libm.a(dp32div.o)
 .reginfo       0x00000000       0x18 /Applications/microchip/xc32/v2.10/bin/bin/../../lib/gcc/pic32mx/4.8.3/../../../../pic32mx/lib/libm.a(dp32mul.o)
 .reginfo       0x00000000       0x18 /Applications/microchip/xc32/v2.10/bin/bin/../../lib/gcc/pic32mx/4.8.3/../../../../pic32mx/lib/libm.a(dp32subadd.o)
 .reginfo       0x00000000       0x18 /Applications/microchip/xc32/v2.10/bin/bin/../../lib/gcc/pic32mx/4.8.3/../../../../pic32mx/lib/libm.a(litodp.o)
 .reginfo       0x00000000       0x18 /Applications/microchip/xc32/v2.10/bin/bin/../../lib/gcc/pic32mx/4.8.3/../../../../pic32mx/lib/libm.a(negdf2.o)
 .reginfo       0x00000000       0x18 /Applications/microchip/xc32/v2.10/bin/bin/../../lib/gcc/pic32mx/4.8.3/../../../../pic32mx/lib/libm.a(negsf2.o)
 .reginfo       0x00000000       0x18 /Applications/microchip/xc32/v2.10/bin/bin/../../lib/gcc/pic32mx/4.8.3/../../../../pic32mx/lib/libe.a(_ldexp.o)
 .reginfo       0x00000000       0x18 /Applications/microchip/xc32/v2.10/bin/bin/../../lib/gcc/pic32mx/4.8.3/../../../../pic32mx/lib/libe.a(_ldexpf.o)
 .reginfo       0x00000000       0x18 /Applications/microchip/xc32/v2.10/bin/bin/../../lib/gcc/pic32mx/4.8.3/libgcc.a(_lshrdi3.o)
 .reginfo       0x00000000       0x18 /Applications/microchip/xc32/v2.10/bin/bin/../../lib/gcc/pic32mx/4.8.3/libgcc.a(_ashldi3.o)
 .reginfo       0x00000000       0x18 /Applications/microchip/xc32/v2.10/bin/bin/../../lib/gcc/pic32mx/4.8.3/libgcc.a(_divdi3.o)
 .reginfo       0x00000000       0x18 /Applications/microchip/xc32/v2.10/bin/bin/../../lib/gcc/pic32mx/4.8.3/libgcc.a(_udivdi3.o)
 .reginfo       0x00000000       0x18 /Applications/microchip/xc32/v2.10/bin/bin/../../lib/gcc/pic32mx/4.8.3/../../../../pic32mx/lib/libpic32.a(sbrk.o)
 .reginfo       0x00000000       0x18 /Applications/microchip/xc32/v2.10/bin/bin/../../lib/gcc/pic32mx/4.8.3/../../../../pic32mx/lib/libpic32.a(_exit.o)
 .reginfo       0x00000000       0x18 /Applications/microchip/xc32/v2.10/bin/bin/../../lib/gcc/pic32mx/4.8.3/../../../../pic32mx/lib/libpic32.a(isatty.o)
 .reginfo       0x00000000       0x18 /Applications/microchip/xc32/v2.10/bin/bin/../../lib/gcc/pic32mx/4.8.3/../../../../pic32mx/lib/libpic32.a(_mon_getc.o)
 .reginfo       0x00000000       0x18 /Applications/microchip/xc32/v2.10/bin/bin/../../lib/gcc/pic32mx/4.8.3/../../../../pic32mx/lib/libpic32.a(_mon_write.o)
 .reginfo       0x00000000       0x18 /Applications/microchip/xc32/v2.10/bin/bin/../../lib/gcc/pic32mx/4.8.3/../../../../pic32mx/lib/libpic32.a(xc32_uart.o)
 .reginfo       0x00000000       0x18 /Applications/microchip/xc32/v2.10/bin/bin/../../lib/gcc/pic32mx/4.8.3/../../../../pic32mx/lib/libpic32.a(_mon_putc.o)

Memory Configuration

Name             Origin             Length             Attributes
kseg0_program_mem 0x9d000000         0x00080000         xr
kseg0_boot_mem   0x9fc00490         0x00000970
exception_mem    0x9fc01000         0x00001000
kseg1_boot_mem   0xbfc00000         0x00000490
debug_exec_mem   0xbfc02000         0x00000ff0
config3          0xbfc02ff0         0x00000004
config2          0xbfc02ff4         0x00000004
config1          0xbfc02ff8         0x00000004
config0          0xbfc02ffc         0x00000004
kseg1_data_mem   0xa0000000         0x00020000         w !x
sfrs             0xbf800000         0x00100000
configsfrs       0xbfc02ff0         0x00000010
*default*        0x00000000         0xffffffff

Linker script and memory map

LOAD /Applications/microchip/xc32/v2.10/bin/bin/../../lib/gcc/pic32mx/4.8.3/../../../../pic32mx/lib/./proc/32MX370F512H/crt0_mips32r2.o
LOAD /Applications/microchip/xc32/v2.10/bin/bin/../../lib/gcc/pic32mx/4.8.3/../../../../pic32mx/lib/debug-exception-return.o
LOAD build/default/production/src/basic/tokenizer.o
LOAD build/default/production/src/basic/ubasic.o
LOAD build/default/production/src/basic/tokenizer_fast.o
LOAD build/default/production/src/basic/tokenizer_slow.o
LOAD build/default/production/src/Z80/sim2.o
LOAD build/default/production/src/Z80/sim4.o
LOAD build/default/production/src/Z80/sim1.o
LOAD build/default/production/src/Z80/sim3.o
LOAD build/default/production/src/Z80/iosim.o
LOAD build/default/production/src/Z80/sim5.o
LOAD build/default/production/src/Z80/sim7.o
LOAD build/default/production/src/Z80/simfun.o
LOAD build/default/production/src/Z80/hwz.o
LOAD build/default/production/src/Z80/simglb.o
LOAD build/default/production/src/Z80/sim6.o
LOAD build/default/production/src/badge.o
LOAD build/default/production/src/box_game.o
LOAD build/default/production/src/disp.o
LOAD build/default/production/src/hw.o
LOAD build/default/production/src/images.o
LOAD build/default/production/src/main.o
LOAD build/default/production/src/post.o
LOAD build/default/production/src/snake.o
LOAD build/default/production/src/splash.o
LOAD build/default/production/src/tetrapuzz.o
LOAD build/default/production/src/tune_player.o
LOAD build/default/production/src/vt100.o
LOAD build/default/production/src/nyancat.o
LOAD build/default/production/src/user_program.o
LOAD build/default/production/src/puzzle.o
LOAD build/default/production/src/qrcodegen.o
                0x00000001                __MPLAB_BUILD = 0x1
                0x00000080                _min_heap_size = 0x80
                0x00000080                _min_stack_size = 0x80
LOAD /Applications/microchip/xc32/v2.10/bin/bin/../../lib/gcc/pic32mx/4.8.3/../../../../pic32mx/lib/./proc/32MX370F512H/default_isr_vectors.o
LOAD /Applications/microchip/xc32/v2.10/bin/bin/../../lib/gcc/pic32mx/4.8.3/../../../../pic32mx/lib/pic32_software_reset.o
                0x00000400                PROVIDE (_min_stack_size, 0x400)
LOAD /Applications/microchip/xc32/v2.10/bin/bin/../../lib/gcc/pic32mx/4.8.3/../../../../pic32mx/lib/./proc/32MX370F512H/processor.o
START GROUP
LOAD /Applications/microchip/xc32/v2.10/bin/bin/../../lib/gcc/pic32mx/4.8.3/../../../../pic32mx/lib/libmchp_peripheral.a
END GROUP
START GROUP
LOAD /Applications/microchip/xc32/v2.10/bin/bin/../../lib/gcc/pic32mx/4.8.3/../../../../pic32mx/lib/libmchp_peripheral_32MX370F512H.a
END GROUP
                0x00000001                PROVIDE (_vector_spacing, 0x1)
                0x9fc01000                PROVIDE (_ebase_address, 0x9fc01000)
                0xbfc00000                _RESET_ADDR = 0xbfc00000
                0xbfc00380                _BEV_EXCPT_ADDR = 0xbfc00380
                0xbfc00480                _DBG_EXCPT_ADDR = 0xbfc00480
                0xbfc02000                _DBG_CODE_ADDR = 0xbfc02000
                0x00000ff0                _DBG_CODE_SIZE = 0xff0
                0x9fc01180                _GEN_EXCPT_ADDR = (_ebase_address + 0x180)

.config_BFC02FF0
                0xbfc02ff0        0x4
 *(.config_BFC02FF0)
 .config_BFC02FF0
                0xbfc02ff0        0x4 build/default/production/src/hw.o

.config_BFC02FF4
                0xbfc02ff4        0x4
 *(.config_BFC02FF4)
 .config_BFC02FF4
                0xbfc02ff4        0x4 build/default/production/src/hw.o

.config_BFC02FF8
                0xbfc02ff8        0x4
 *(.config_BFC02FF8)
 .config_BFC02FF8
                0xbfc02ff8        0x4 build/default/production/src/hw.o

.config_BFC02FFC
                0xbfc02ffc        0x4
 *(.config_BFC02FFC)
 .config_BFC02FFC
                0xbfc02ffc        0x4 build/default/production/src/hw.o
                0xbfc02000                PROVIDE (_DBG_CODE_ADDR, 0xbfc02000)
                0x00000ff0                PROVIDE (_DBG_CODE_SIZE, 0xff0)

.reset          0xbfc00000      0x1a8
 *(.reset)
 .reset         0xbfc00000        0x8 /Applications/microchip/xc32/v2.10/bin/bin/../../lib/gcc/pic32mx/4.8.3/../../../../pic32mx/lib/./proc/32MX370F512H/crt0_mips32r2.o
                0xbfc00000                _reset
 *(.reset.startup)
 .reset.startup
                0xbfc00008      0x1a0 /Applications/microchip/xc32/v2.10/bin/bin/../../lib/gcc/pic32mx/4.8.3/../../../../pic32mx/lib/./proc/32MX370F512H/crt0_mips32r2.o
                0xbfc00008                _startup

.bev_excpt      0xbfc00380       0x10
 *(.bev_handler)
 .bev_handler   0xbfc00380       0x10 /Applications/microchip/xc32/v2.10/bin/bin/../../lib/gcc/pic32mx/4.8.3/../../../../pic32mx/lib/./proc/32MX370F512H/crt0_mips32r2.o

.dbg_excpt      0xbfc00480        0x0
                0xbfc00480                . = (. + DEFINED (_DEBUGGER)?0x8:0x0)

.dbg_code       0xbfc02000        0x0
                0xbfc02000                . = (. + DEFINED (_DEBUGGER)?_DBG_CODE_SIZE:0x0)

.app_excpt      0x9fc01180       0x10
 *(.gen_handler)
 .gen_handler   0x9fc01180       0x10 /Applications/microchip/xc32/v2.10/bin/bin/../../lib/gcc/pic32mx/4.8.3/../../../../pic32mx/lib/./proc/32MX370F512H/crt0_mips32r2.o

.vector_0       0x9fc01200        0x8
 *(.vector_0)
 .vector_0      0x9fc01200        0x8 /Applications/microchip/xc32/v2.10/bin/bin/../../lib/gcc/pic32mx/4.8.3/../../../../pic32mx/lib/libpic32.a(vector0.o)
                0x9fc01200                __vector_dispatch_0
                0x00000001                ASSERT (((_vector_spacing == 0x0) || (SIZEOF (.vector_0) <= (_vector_spacing << 0x5))), function at exception vector 0 too large)

.vector_1       0x9fc01220        0x8
 *(.vector_1)
 .vector_1      0x9fc01220        0x8 /Applications/microchip/xc32/v2.10/bin/bin/../../lib/gcc/pic32mx/4.8.3/../../../../pic32mx/lib/libpic32.a(vector1.o)
                0x9fc01220                __vector_dispatch_1
                0x00000001                ASSERT (((_vector_spacing == 0x0) || (SIZEOF (.vector_1) <= (_vector_spacing << 0x5))), function at exception vector 1 too large)

.vector_2       0x9fc01240        0x8
 *(.vector_2)
 .vector_2      0x9fc01240        0x8 /Applications/microchip/xc32/v2.10/bin/bin/../../lib/gcc/pic32mx/4.8.3/../../../../pic32mx/lib/libpic32.a(vector2.o)
                0x9fc01240                __vector_dispatch_2
                0x00000001                ASSERT (((_vector_spacing == 0x0) || (SIZEOF (.vector_2) <= (_vector_spacing << 0x5))), function at exception vector 2 too large)

.vector_3       0x9fc01260        0x8
 *(.vector_3)
 .vector_3      0x9fc01260        0x8 /Applications/microchip/xc32/v2.10/bin/bin/../../lib/gcc/pic32mx/4.8.3/../../../../pic32mx/lib/libpic32.a(vector3.o)
                0x9fc01260                __vector_dispatch_3
                0x00000001                ASSERT (((_vector_spacing == 0x0) || (SIZEOF (.vector_3) <= (_vector_spacing << 0x5))), function at exception vector 3 too large)

.vector_4       0x9fc01280        0x8
 *(.vector_4)
 .vector_4      0x9fc01280        0x8 build/default/production/src/badge.o
                0x9fc01280                __vector_dispatch_4
                0x00000001                ASSERT (((_vector_spacing == 0x0) || (SIZEOF (.vector_4) <= (_vector_spacing << 0x5))), function at exception vector 4 too large)

.vector_5       0x9fc012a0        0x8
 *(.vector_5)
 .vector_5      0x9fc012a0        0x8 /Applications/microchip/xc32/v2.10/bin/bin/../../lib/gcc/pic32mx/4.8.3/../../../../pic32mx/lib/libpic32.a(vector5.o)
                0x9fc012a0                __vector_dispatch_5
                0x00000001                ASSERT (((_vector_spacing == 0x0) || (SIZEOF (.vector_5) <= (_vector_spacing << 0x5))), function at exception vector 5 too large)

.vector_6       0x9fc012c0        0x8
 *(.vector_6)
 .vector_6      0x9fc012c0        0x8 /Applications/microchip/xc32/v2.10/bin/bin/../../lib/gcc/pic32mx/4.8.3/../../../../pic32mx/lib/libpic32.a(vector6.o)
                0x9fc012c0                __vector_dispatch_6
                0x00000001                ASSERT (((_vector_spacing == 0x0) || (SIZEOF (.vector_6) <= (_vector_spacing << 0x5))), function at exception vector 6 too large)

.vector_7       0x9fc012e0        0x8
 *(.vector_7)
 .vector_7      0x9fc012e0        0x8 /Applications/microchip/xc32/v2.10/bin/bin/../../lib/gcc/pic32mx/4.8.3/../../../../pic32mx/lib/libpic32.a(vector7.o)
                0x9fc012e0                __vector_dispatch_7
                0x00000001                ASSERT (((_vector_spacing == 0x0) || (SIZEOF (.vector_7) <= (_vector_spacing << 0x5))), function at exception vector 7 too large)

.vector_8       0x9fc01300        0x8
 *(.vector_8)
 .vector_8      0x9fc01300        0x8 build/default/production/src/hw.o
                0x9fc01300                __vector_dispatch_8
                0x00000001                ASSERT (((_vector_spacing == 0x0) || (SIZEOF (.vector_8) <= (_vector_spacing << 0x5))), function at exception vector 8 too large)

.vector_9       0x9fc01320        0x8
 *(.vector_9)
 .vector_9      0x9fc01320        0x8 /Applications/microchip/xc32/v2.10/bin/bin/../../lib/gcc/pic32mx/4.8.3/../../../../pic32mx/lib/libpic32.a(vector9.o)
                0x9fc01320                __vector_dispatch_9
                0x00000001                ASSERT (((_vector_spacing == 0x0) || (SIZEOF (.vector_9) <= (_vector_spacing << 0x5))), function at exception vector 9 too large)

.vector_10      0x9fc01340        0x8
 *(.vector_10)
 .vector_10     0x9fc01340        0x8 /Applications/microchip/xc32/v2.10/bin/bin/../../lib/gcc/pic32mx/4.8.3/../../../../pic32mx/lib/libpic32.a(vector10.o)
                0x9fc01340                __vector_dispatch_10
                0x00000001                ASSERT (((_vector_spacing == 0x0) || (SIZEOF (.vector_10) <= (_vector_spacing << 0x5))), function at exception vector 10 too large)

.vector_11      0x9fc01360        0x8
 *(.vector_11)
 .vector_11     0x9fc01360        0x8 build/default/production/src/badge.o
                0x9fc01360                __vector_dispatch_11
                0x00000001                ASSERT (((_vector_spacing == 0x0) || (SIZEOF (.vector_11) <= (_vector_spacing << 0x5))), function at exception vector 11 too large)

.vector_12      0x9fc01380        0x8
 *(.vector_12)
 .vector_12     0x9fc01380        0x8 build/default/production/src/hw.o
                0x9fc01380                __vector_dispatch_12
                0x00000001                ASSERT (((_vector_spacing == 0x0) || (SIZEOF (.vector_12) <= (_vector_spacing << 0x5))), function at exception vector 12 too large)

.vector_13      0x9fc013a0        0x8
 *(.vector_13)
 .vector_13     0x9fc013a0        0x8 /Applications/microchip/xc32/v2.10/bin/bin/../../lib/gcc/pic32mx/4.8.3/../../../../pic32mx/lib/libpic32.a(vector13.o)
                0x9fc013a0                __vector_dispatch_13
                0x00000001                ASSERT (((_vector_spacing == 0x0) || (SIZEOF (.vector_13) <= (_vector_spacing << 0x5))), function at exception vector 13 too large)

.vector_14      0x9fc013c0        0x8
 *(.vector_14)
 .vector_14     0x9fc013c0        0x8 /Applications/microchip/xc32/v2.10/bin/bin/../../lib/gcc/pic32mx/4.8.3/../../../../pic32mx/lib/libpic32.a(vector14.o)
                0x9fc013c0                __vector_dispatch_14
                0x00000001                ASSERT (((_vector_spacing == 0x0) || (SIZEOF (.vector_14) <= (_vector_spacing << 0x5))), function at exception vector 14 too large)

.vector_15      0x9fc013e0        0x8
 *(.vector_15)
 .vector_15     0x9fc013e0        0x8 /Applications/microchip/xc32/v2.10/bin/bin/../../lib/gcc/pic32mx/4.8.3/../../../../pic32mx/lib/libpic32.a(vector15.o)
                0x9fc013e0                __vector_dispatch_15
                0x00000001                ASSERT (((_vector_spacing == 0x0) || (SIZEOF (.vector_15) <= (_vector_spacing << 0x5))), function at exception vector 15 too large)

.vector_16      0x9fc01400        0x8
 *(.vector_16)
 .vector_16     0x9fc01400        0x8 build/default/production/src/hw.o
                0x9fc01400                __vector_dispatch_16
                0x00000001                ASSERT (((_vector_spacing == 0x0) || (SIZEOF (.vector_16) <= (_vector_spacing << 0x5))), function at exception vector 16 too large)

.vector_17      0x9fc01420        0x8
 *(.vector_17)
 .vector_17     0x9fc01420        0x8 /Applications/microchip/xc32/v2.10/bin/bin/../../lib/gcc/pic32mx/4.8.3/../../../../pic32mx/lib/libpic32.a(vector17.o)
                0x9fc01420                __vector_dispatch_17
                0x00000001                ASSERT (((_vector_spacing == 0x0) || (SIZEOF (.vector_17) <= (_vector_spacing << 0x5))), function at exception vector 17 too large)

.vector_18      0x9fc01440        0x8
 *(.vector_18)
 .vector_18     0x9fc01440        0x8 /Applications/microchip/xc32/v2.10/bin/bin/../../lib/gcc/pic32mx/4.8.3/../../../../pic32mx/lib/libpic32.a(vector18.o)
                0x9fc01440                __vector_dispatch_18
                0x00000001                ASSERT (((_vector_spacing == 0x0) || (SIZEOF (.vector_18) <= (_vector_spacing << 0x5))), function at exception vector 18 too large)

.vector_19      0x9fc01460        0x8
 *(.vector_19)
 .vector_19     0x9fc01460        0x8 /Applications/microchip/xc32/v2.10/bin/bin/../../lib/gcc/pic32mx/4.8.3/../../../../pic32mx/lib/libpic32.a(vector19.o)
                0x9fc01460                __vector_dispatch_19
                0x00000001                ASSERT (((_vector_spacing == 0x0) || (SIZEOF (.vector_19) <= (_vector_spacing << 0x5))), function at exception vector 19 too large)

.vector_20      0x9fc01480        0x8
 *(.vector_20)
 .vector_20     0x9fc01480        0x8 build/default/production/src/badge.o
                0x9fc01480                __vector_dispatch_20
                0x00000001                ASSERT (((_vector_spacing == 0x0) || (SIZEOF (.vector_20) <= (_vector_spacing << 0x5))), function at exception vector 20 too large)

.vector_21      0x9fc014a0        0x8
 *(.vector_21)
 .vector_21     0x9fc014a0        0x8 /Applications/microchip/xc32/v2.10/bin/bin/../../lib/gcc/pic32mx/4.8.3/../../../../pic32mx/lib/libpic32.a(vector21.o)
                0x9fc014a0                __vector_dispatch_21
                0x00000001                ASSERT (((_vector_spacing == 0x0) || (SIZEOF (.vector_21) <= (_vector_spacing << 0x5))), function at exception vector 21 too large)

.vector_22      0x9fc014c0        0x8
 *(.vector_22)
 .vector_22     0x9fc014c0        0x8 /Applications/microchip/xc32/v2.10/bin/bin/../../lib/gcc/pic32mx/4.8.3/../../../../pic32mx/lib/libpic32.a(vector22.o)
                0x9fc014c0                __vector_dispatch_22
                0x00000001                ASSERT (((_vector_spacing == 0x0) || (SIZEOF (.vector_22) <= (_vector_spacing << 0x5))), function at exception vector 22 too large)

.vector_23      0x9fc014e0        0x8
 *(.vector_23)
 .vector_23     0x9fc014e0        0x8 /Applications/microchip/xc32/v2.10/bin/bin/../../lib/gcc/pic32mx/4.8.3/../../../../pic32mx/lib/libpic32.a(vector23.o)
                0x9fc014e0                __vector_dispatch_23
                0x00000001                ASSERT (((_vector_spacing == 0x0) || (SIZEOF (.vector_23) <= (_vector_spacing << 0x5))), function at exception vector 23 too large)

.vector_24      0x9fc01500        0x8
 *(.vector_24)
 .vector_24     0x9fc01500        0x8 /Applications/microchip/xc32/v2.10/bin/bin/../../lib/gcc/pic32mx/4.8.3/../../../../pic32mx/lib/libpic32.a(vector24.o)
                0x9fc01500                __vector_dispatch_24
                0x00000001                ASSERT (((_vector_spacing == 0x0) || (SIZEOF (.vector_24) <= (_vector_spacing << 0x5))), function at exception vector 24 too large)

.vector_25      0x9fc01520        0x8
 *(.vector_25)
 .vector_25     0x9fc01520        0x8 /Applications/microchip/xc32/v2.10/bin/bin/../../lib/gcc/pic32mx/4.8.3/../../../../pic32mx/lib/libpic32.a(vector25.o)
                0x9fc01520                __vector_dispatch_25
                0x00000001                ASSERT (((_vector_spacing == 0x0) || (SIZEOF (.vector_25) <= (_vector_spacing << 0x5))), function at exception vector 25 too large)

.vector_26      0x9fc01540        0x8
 *(.vector_26)
 .vector_26     0x9fc01540        0x8 /Applications/microchip/xc32/v2.10/bin/bin/../../lib/gcc/pic32mx/4.8.3/../../../../pic32mx/lib/libpic32.a(vector26.o)
                0x9fc01540                __vector_dispatch_26
                0x00000001                ASSERT (((_vector_spacing == 0x0) || (SIZEOF (.vector_26) <= (_vector_spacing << 0x5))), function at exception vector 26 too large)

.vector_27      0x9fc01560        0x8
 *(.vector_27)
 .vector_27     0x9fc01560        0x8 /Applications/microchip/xc32/v2.10/bin/bin/../../lib/gcc/pic32mx/4.8.3/../../../../pic32mx/lib/libpic32.a(vector27.o)
                0x9fc01560                __vector_dispatch_27
                0x00000001                ASSERT (((_vector_spacing == 0x0) || (SIZEOF (.vector_27) <= (_vector_spacing << 0x5))), function at exception vector 27 too large)

.vector_28      0x9fc01580        0x8
 *(.vector_28)
 .vector_28     0x9fc01580        0x8 /Applications/microchip/xc32/v2.10/bin/bin/../../lib/gcc/pic32mx/4.8.3/../../../../pic32mx/lib/libpic32.a(vector28.o)
                0x9fc01580                __vector_dispatch_28
                0x00000001                ASSERT (((_vector_spacing == 0x0) || (SIZEOF (.vector_28) <= (_vector_spacing << 0x5))), function at exception vector 28 too large)

.vector_29      0x9fc015a0        0x8
 *(.vector_29)
 .vector_29     0x9fc015a0        0x8 /Applications/microchip/xc32/v2.10/bin/bin/../../lib/gcc/pic32mx/4.8.3/../../../../pic32mx/lib/libpic32.a(vector29.o)
                0x9fc015a0                __vector_dispatch_29
                0x00000001                ASSERT (((_vector_spacing == 0x0) || (SIZEOF (.vector_29) <= (_vector_spacing << 0x5))), function at exception vector 29 too large)

.vector_30      0x9fc015c0        0x8
 *(.vector_30)
 .vector_30     0x9fc015c0        0x8 /Applications/microchip/xc32/v2.10/bin/bin/../../lib/gcc/pic32mx/4.8.3/../../../../pic32mx/lib/libpic32.a(vector30.o)
                0x9fc015c0                __vector_dispatch_30
                0x00000001                ASSERT (((_vector_spacing == 0x0) || (SIZEOF (.vector_30) <= (_vector_spacing << 0x5))), function at exception vector 30 too large)

.vector_31      0x9fc015e0        0x8
 *(.vector_31)
 .vector_31     0x9fc015e0        0x8 /Applications/microchip/xc32/v2.10/bin/bin/../../lib/gcc/pic32mx/4.8.3/../../../../pic32mx/lib/libpic32.a(vector31.o)
                0x9fc015e0                __vector_dispatch_31
                0x00000001                ASSERT (((_vector_spacing == 0x0) || (SIZEOF (.vector_31) <= (_vector_spacing << 0x5))), function at exception vector 31 too large)

.vector_32      0x9fc01600        0x8
 *(.vector_32)
 .vector_32     0x9fc01600        0x8 /Applications/microchip/xc32/v2.10/bin/bin/../../lib/gcc/pic32mx/4.8.3/../../../../pic32mx/lib/libpic32.a(vector32.o)
                0x9fc01600                __vector_dispatch_32
                0x00000001                ASSERT (((_vector_spacing == 0x0) || (SIZEOF (.vector_32) <= (_vector_spacing << 0x5))), function at exception vector 32 too large)

.vector_33      0x9fc01620        0x8
 *(.vector_33)
 .vector_33     0x9fc01620        0x8 /Applications/microchip/xc32/v2.10/bin/bin/../../lib/gcc/pic32mx/4.8.3/../../../../pic32mx/lib/libpic32.a(vector33.o)
                0x9fc01620                __vector_dispatch_33
                0x00000001                ASSERT (((_vector_spacing == 0x0) || (SIZEOF (.vector_33) <= (_vector_spacing << 0x5))), function at exception vector 33 too large)

.vector_34      0x9fc01640        0x8
 *(.vector_34)
 .vector_34     0x9fc01640        0x8 /Applications/microchip/xc32/v2.10/bin/bin/../../lib/gcc/pic32mx/4.8.3/../../../../pic32mx/lib/libpic32.a(vector34.o)
                0x9fc01640                __vector_dispatch_34
                0x00000001                ASSERT (((_vector_spacing == 0x0) || (SIZEOF (.vector_34) <= (_vector_spacing << 0x5))), function at exception vector 34 too large)

.vector_35      0x9fc01660        0x8
 *(.vector_35)
 .vector_35     0x9fc01660        0x8 /Applications/microchip/xc32/v2.10/bin/bin/../../lib/gcc/pic32mx/4.8.3/../../../../pic32mx/lib/libpic32.a(vector35.o)
                0x9fc01660                __vector_dispatch_35
                0x00000001                ASSERT (((_vector_spacing == 0x0) || (SIZEOF (.vector_35) <= (_vector_spacing << 0x5))), function at exception vector 35 too large)

.vector_36      0x9fc01680        0x8
 *(.vector_36)
 .vector_36     0x9fc01680        0x8 /Applications/microchip/xc32/v2.10/bin/bin/../../lib/gcc/pic32mx/4.8.3/../../../../pic32mx/lib/libpic32.a(vector36.o)
                0x9fc01680                __vector_dispatch_36
                0x00000001                ASSERT (((_vector_spacing == 0x0) || (SIZEOF (.vector_36) <= (_vector_spacing << 0x5))), function at exception vector 36 too large)

.vector_37      0x9fc016a0        0x8
 *(.vector_37)
 .vector_37     0x9fc016a0        0x8 /Applications/microchip/xc32/v2.10/bin/bin/../../lib/gcc/pic32mx/4.8.3/../../../../pic32mx/lib/libpic32.a(vector37.o)
                0x9fc016a0                __vector_dispatch_37
                0x00000001                ASSERT (((_vector_spacing == 0x0) || (SIZEOF (.vector_37) <= (_vector_spacing << 0x5))), function at exception vector 37 too large)

.vector_38      0x9fc016c0        0x8
 *(.vector_38)
 .vector_38     0x9fc016c0        0x8 /Applications/microchip/xc32/v2.10/bin/bin/../../lib/gcc/pic32mx/4.8.3/../../../../pic32mx/lib/libpic32.a(vector38.o)
                0x9fc016c0                __vector_dispatch_38
                0x00000001                ASSERT (((_vector_spacing == 0x0) || (SIZEOF (.vector_38) <= (_vector_spacing << 0x5))), function at exception vector 38 too large)

.vector_39      0x9fc016e0        0x8
 *(.vector_39)
 .vector_39     0x9fc016e0        0x8 /Applications/microchip/xc32/v2.10/bin/bin/../../lib/gcc/pic32mx/4.8.3/../../../../pic32mx/lib/libpic32.a(vector39.o)
                0x9fc016e0                __vector_dispatch_39
                0x00000001                ASSERT (((_vector_spacing == 0x0) || (SIZEOF (.vector_39) <= (_vector_spacing << 0x5))), function at exception vector 39 too large)

.vector_40      0x9fc01700        0x8
 *(.vector_40)
 .vector_40     0x9fc01700        0x8 /Applications/microchip/xc32/v2.10/bin/bin/../../lib/gcc/pic32mx/4.8.3/../../../../pic32mx/lib/libpic32.a(vector40.o)
                0x9fc01700                __vector_dispatch_40
                0x00000001                ASSERT (((_vector_spacing == 0x0) || (SIZEOF (.vector_40) <= (_vector_spacing << 0x5))), function at exception vector 40 too large)

.vector_41      0x9fc01720        0x8
 *(.vector_41)
 .vector_41     0x9fc01720        0x8 /Applications/microchip/xc32/v2.10/bin/bin/../../lib/gcc/pic32mx/4.8.3/../../../../pic32mx/lib/libpic32.a(vector41.o)
                0x9fc01720                __vector_dispatch_41
                0x00000001                ASSERT (((_vector_spacing == 0x0) || (SIZEOF (.vector_41) <= (_vector_spacing << 0x5))), function at exception vector 41 too large)

.vector_42      0x9fc01740        0x8
 *(.vector_42)
 .vector_42     0x9fc01740        0x8 /Applications/microchip/xc32/v2.10/bin/bin/../../lib/gcc/pic32mx/4.8.3/../../../../pic32mx/lib/libpic32.a(vector42.o)
                0x9fc01740                __vector_dispatch_42
                0x00000001                ASSERT (((_vector_spacing == 0x0) || (SIZEOF (.vector_42) <= (_vector_spacing << 0x5))), function at exception vector 42 too large)

.vector_43      0x9fc01760        0x8
 *(.vector_43)
 .vector_43     0x9fc01760        0x8 /Applications/microchip/xc32/v2.10/bin/bin/../../lib/gcc/pic32mx/4.8.3/../../../../pic32mx/lib/libpic32.a(vector43.o)
                0x9fc01760                __vector_dispatch_43
                0x00000001                ASSERT (((_vector_spacing == 0x0) || (SIZEOF (.vector_43) <= (_vector_spacing << 0x5))), function at exception vector 43 too large)

.vector_44      0x9fc01780        0x8
 *(.vector_44)
 .vector_44     0x9fc01780        0x8 /Applications/microchip/xc32/v2.10/bin/bin/../../lib/gcc/pic32mx/4.8.3/../../../../pic32mx/lib/libpic32.a(vector44.o)
                0x9fc01780                __vector_dispatch_44
                0x00000001                ASSERT (((_vector_spacing == 0x0) || (SIZEOF (.vector_44) <= (_vector_spacing << 0x5))), function at exception vector 44 too large)

.vector_45      0x9fc017a0        0x8
 *(.vector_45)
 .vector_45     0x9fc017a0        0x8 /Applications/microchip/xc32/v2.10/bin/bin/../../lib/gcc/pic32mx/4.8.3/../../../../pic32mx/lib/libpic32.a(vector45.o)
                0x9fc017a0                __vector_dispatch_45
                0x00000001                ASSERT (((_vector_spacing == 0x0) || (SIZEOF (.vector_45) <= (_vector_spacing << 0x5))), function at exception vector 45 too large)

.vector_46      0x9fc017c0        0x0
 *(.vector_46)
                0x00000001                ASSERT (((_vector_spacing == 0x0) || (SIZEOF (.vector_46) <= (_vector_spacing << 0x5))), function at exception vector 46 too large)

.vector_47      0x9fc017e0        0x0
 *(.vector_47)
                0x00000001                ASSERT (((_vector_spacing == 0x0) || (SIZEOF (.vector_47) <= (_vector_spacing << 0x5))), function at exception vector 47 too large)

.vector_48      0x9fc01800        0x0
 *(.vector_48)
                0x00000001                ASSERT (((_vector_spacing == 0x0) || (SIZEOF (.vector_48) <= (_vector_spacing << 0x5))), function at exception vector 48 too large)

.vector_49      0x9fc01820        0x0
 *(.vector_49)
                0x00000001                ASSERT (((_vector_spacing == 0x0) || (SIZEOF (.vector_49) <= (_vector_spacing << 0x5))), function at exception vector 49 too large)

.vector_50      0x9fc01840        0x0
 *(.vector_50)
                0x00000001                ASSERT (((_vector_spacing == 0x0) || (SIZEOF (.vector_50) <= (_vector_spacing << 0x5))), function at exception vector 50 too large)

.vector_51      0x9fc01860        0x0
 *(.vector_51)
                0x00000001                ASSERT (((_vector_spacing == 0x0) || (SIZEOF (.vector_51) <= (_vector_spacing << 0x5))), function at exception vector 51 too large)

.vector_52      0x9fc01880        0x0
 *(.vector_52)
                0x00000001                ASSERT (((_vector_spacing == 0x0) || (SIZEOF (.vector_52) <= (_vector_spacing << 0x5))), function at exception vector 52 too large)

.vector_53      0x9fc018a0        0x0
 *(.vector_53)
                0x00000001                ASSERT (((_vector_spacing == 0x0) || (SIZEOF (.vector_53) <= (_vector_spacing << 0x5))), function at exception vector 53 too large)

.vector_54      0x9fc018c0        0x0
 *(.vector_54)
                0x00000001                ASSERT (((_vector_spacing == 0x0) || (SIZEOF (.vector_54) <= (_vector_spacing << 0x5))), function at exception vector 54 too large)

.vector_55      0x9fc018e0        0x0
 *(.vector_55)
                0x00000001                ASSERT (((_vector_spacing == 0x0) || (SIZEOF (.vector_55) <= (_vector_spacing << 0x5))), function at exception vector 55 too large)

.vector_56      0x9fc01900        0x0
 *(.vector_56)
                0x00000001                ASSERT (((_vector_spacing == 0x0) || (SIZEOF (.vector_56) <= (_vector_spacing << 0x5))), function at exception vector 56 too large)

.vector_57      0x9fc01920        0x0
 *(.vector_57)
                0x00000001                ASSERT (((_vector_spacing == 0x0) || (SIZEOF (.vector_57) <= (_vector_spacing << 0x5))), function at exception vector 57 too large)

.vector_58      0x9fc01940        0x0
 *(.vector_58)
                0x00000001                ASSERT (((_vector_spacing == 0x0) || (SIZEOF (.vector_58) <= (_vector_spacing << 0x5))), function at exception vector 58 too large)

.vector_59      0x9fc01960        0x0
 *(.vector_59)
                0x00000001                ASSERT (((_vector_spacing == 0x0) || (SIZEOF (.vector_59) <= (_vector_spacing << 0x5))), function at exception vector 59 too large)

.vector_60      0x9fc01980        0x0
 *(.vector_60)
                0x00000001                ASSERT (((_vector_spacing == 0x0) || (SIZEOF (.vector_60) <= (_vector_spacing << 0x5))), function at exception vector 60 too large)

.vector_61      0x9fc019a0        0x0
 *(.vector_61)
                0x00000001                ASSERT (((_vector_spacing == 0x0) || (SIZEOF (.vector_61) <= (_vector_spacing << 0x5))), function at exception vector 61 too large)

.vector_62      0x9fc019c0        0x0
 *(.vector_62)
                0x00000001                ASSERT (((_vector_spacing == 0x0) || (SIZEOF (.vector_62) <= (_vector_spacing << 0x5))), function at exception vector 62 too large)

.vector_63      0x9fc019e0        0x0
 *(.vector_63)
                0x00000001                ASSERT (((_vector_spacing == 0x0) || (SIZEOF (.vector_63) <= (_vector_spacing << 0x5))), function at exception vector 63 too large)

.startup
 *(.startup)

.text           0x9d000000        0x0
 *(.stub .gnu.linkonce.t.*)
 *(.text.*personality*)
 *(.mips16.fn.*)
 *(.mips16.call.*)
 *(.gnu.warning)
                0x9d000000                . = ALIGN (0x4)

.init           0x9d000000        0x0
 *crti.o(.init)
 *crtbegin.o(.init)
 *(EXCLUDE_FILE(*crtn.o *crtend?.o *crtend.o) .init)
 *crtend.o(.init)
 *crtn.o(.init)
                0x9d000000                . = ALIGN (0x4)

.fini           0x9d000000        0x0
 *(.fini)
                0x9d000000                . = ALIGN (0x4)

.preinit_array  0x9d000000        0x0
                0x9d000000                PROVIDE (__preinit_array_start, .)
 *(.preinit_array)
                0x9d000000                PROVIDE (__preinit_array_end, .)
                0x9d000000                . = ALIGN (0x4)

.init_array     0x9d000000        0x0
                0x9d000000                PROVIDE (__init_array_start, .)
 *(SORT(.init_array.*))
 *(.init_array)
                0x9d000000                PROVIDE (__init_array_end, .)
                0x9d000000                . = ALIGN (0x4)

.fini_array     0x9d000000        0x0
                0x9d000000                PROVIDE (__fini_array_start, .)
 *(SORT(.fini_array.*))
 *(.fini_array)
                0x9d000000                PROVIDE (__fini_array_end, .)
                0x9d000000                . = ALIGN (0x4)

.ctors          0x9d000000        0x0
 *crtbegin.o(.ctors)
 *crtbegin?.o(.ctors)
 *(EXCLUDE_FILE(*crtend?.o *crtend.o) .ctors)
 *(SORT(.ctors.*))
 *(.ctors)
                0x9d000000                . = ALIGN (0x4)

.dtors          0x9d000000        0x0
 *crtbegin.o(.dtors)
 *crtbegin?.o(.dtors)
 *(EXCLUDE_FILE(*crtend?.o *crtend.o) .dtors)
 *(SORT(.dtors.*))
 *(.dtors)
                0x9d000000                . = ALIGN (0x4)

.rodata         0x9d000000        0x0
 *(.gnu.linkonce.r.*)
 *(.rodata1)
                0x9d000000                . = ALIGN (0x4)

.sdata2         0x9fc00490        0x0
 *(.sdata2 .sdata2.* .gnu.linkonce.s2.*)
                0x9fc00490                . = ALIGN (0x4)

.sbss2          0x9fc00490        0x0
 *(.sbss2 .sbss2.* .gnu.linkonce.sb2.*)
                0x9fc00490                . = ALIGN (0x4)

.eh_frame_hdr
 *(.eh_frame_hdr)
                0x9fc00490                . = ALIGN (0x4)

.eh_frame
 *(.eh_frame)
                0x9fc00490                . = ALIGN (0x4)

.gcc_except_table
 *(.gcc_except_table .gcc_except_table.*)
                0x9fc00490                . = ALIGN (0x4)

.dbg_data       0xa0000000        0x0
                0xa0000000                . = (. + DEFINED (_DEBUGGER)?0x200:0x0)

.jcr            0xa0000000        0x0
 *(.jcr)
                0xa0000000                . = ALIGN (0x4)

.eh_frame
 *(.eh_frame)
                0xa0000000                . = ALIGN (0x4)

.gcc_except_table
 *(.gcc_except_table .gcc_except_table.*)
                0xa0000000                . = ALIGN (0x4)

.persist        0xa0000000        0x0
                0xa0000000                _persist_begin = .
 *(.persist .persist.*)
 *(.pbss .pbss.*)
                0xa0000000                . = ALIGN (0x4)
                0xa0000000                _persist_end = .

.data           0xa0000000        0x0
 *(.gnu.linkonce.d.*)
 *(.data1)
                0xa0000000                . = ALIGN (0x4)
                0xa0000000                . = .
                0xa0007ff0                _gp = (ALIGN (0x10) + 0x7ff0)

.got            0xa0000000        0x0
 *(.got.plt)
 *(.got)
                0xa0000000                . = ALIGN (0x4)

.sdata          0xa0000000       0x34
                0xa0000000                _sdata_begin = .
 *(.sdata .sdata.* .gnu.linkonce.s.*)
 .sdata         0xa0000000        0x8 build/default/production/src/basic/ubasic.o
                0xa0000000                term_vt100
                0xa0000004                maxQrHeight
 .sdata         0xa0000008        0x4 build/default/production/src/Z80/hwz.o
                0xa0000008                last_addr
 .sdata         0xa000000c        0x4 build/default/production/src/Z80/simglb.o
                0xa000000c                break_flag
 .sdata         0xa0000010        0x8 build/default/production/src/badge.o
                0xa0000010                handle_display
 .sdata         0xa0000018        0x4 build/default/production/src/main.o
 .sdata         0xa000001c        0x4 build/default/production/src/vt100.o
 .sdata         0xa0000020        0x4 build/default/production/src/nyancat.o
 .sdata         0xa0000024        0x4 build/default/production/src/user_program.o
 .sdata         0xa0000028        0x4 build/default/production/src/puzzle.o
 .sdata         0xa000002c        0x4 /Applications/microchip/xc32/v2.10/bin/bin/../../lib/gcc/pic32mx/4.8.3/../../../../pic32mx/lib/liblega-c.a(_iobdata.o)
                0xa000002c                _libc_data
 .sdata         0xa0000030        0x4 /Applications/microchip/xc32/v2.10/bin/bin/../../lib/gcc/pic32mx/4.8.3/../../../../pic32mx/lib/libpic32.a(xc32_uart.o)
                0xa0000030                __XC_UART
                0xa0000034                . = ALIGN (0x4)
                0xa0000034                _sdata_end = .

.lit8
 *(.lit8)

.lit4
 *(.lit4)
                0xa0000034                . = ALIGN (0x4)
                0xa0000034                _data_end = .
                0xa0000034                _bss_begin = .

.sbss           0xa0000034      0x164
                0xa0000034                _sbss_begin = .
 *(.dynsbss)
 *(.sbss .sbss.* .gnu.linkonce.sb.*)
 .sbss          0xa0000034       0x20 build/default/production/src/basic/ubasic.o
                0xa0000034                term_y
                0xa0000038                term_x
                0xa000004c                lastPixelSize
                0xa0000050                lastQrSize
 .sbss          0xa0000054        0xc build/default/production/src/basic/tokenizer_slow.o
 .sbss          0xa0000060       0x10 build/default/production/src/badge.o
                0xa0000065                stdio_local_len
                0xa0000066                key_buffer_ptr
 .sbss          0xa0000070        0x5 build/default/production/src/box_game.o
                0xa0000072                rotate
                0xa0000073                cur_piece
                0xa0000074                random_piece
 .sbss          0xa0000075        0x3 build/default/production/src/disp.o
 .sbss          0xa0000078        0x8 build/default/production/src/hw.o
                0xa000007c                led_state
                0xa000007d                key_state
 .sbss          0xa0000080        0x8 build/default/production/src/main.o
 .sbss          0xa0000088        0x2 build/default/production/src/snake.o
                0xa0000088                move_tick
                0xa0000089                game_running
 .sbss          0xa000008a        0x1 build/default/production/src/tetrapuzz.o
                0xa000008a                drop_timer_flag
 *fill*         0xa000008b        0x1 
 .sbss          0xa000008c       0x20 build/default/production/src/vt100.o
 .sbss          0xa00000ac        0x8 build/default/production/src/nyancat.o
 .sbss          0xa00000b4        0x8 build/default/production/src/user_program.o
 .sbss          0xa00000bc        0x8 build/default/production/src/puzzle.o
 .sbss          0xa00000c4        0x4 /Applications/microchip/xc32/v2.10/bin/bin/../../lib/gcc/pic32mx/4.8.3/../../../../pic32mx/lib/liblega-c.a(errno.o)
                0xa00000c4                errno
 *(.scommon)
 .scommon       0xa00000c8        0xc build/default/production/src/basic/ubasic.o
                0xa00000c8                last_linenum
                0xa00000cc                interactive_mode
                0xa00000d0                start_after_wake
 .scommon       0xa00000d4        0x1 build/default/production/src/Z80/iosim.o
                0xa00000d4                iosim_mode
 .scommon       0xa00000d5        0x6 build/default/production/src/Z80/hwz.o
                0xa00000d5                conin_buffer_pointer
                0xa00000d6                unwritten
                0xa00000d7                sector
                0xa00000d8                disk_temp_pointer
                0xa00000d9                drive
                0xa00000da                track
 *fill*         0xa00000db        0x1 
 .scommon       0xa00000dc       0x4c build/default/production/src/Z80/simglb.o
                0xa00000dc                D
                0xa00000dd                C_
                0xa00000e0                wrk_ram
                0xa00000e4                A
                0xa00000e5                L_
                0xa00000e8                cpu_state
                0xa00000ec                F_
                0xa00000f0                B
                0xa00000f1                C
                0xa00000f2                IFF
                0xa00000f3                B_
                0xa00000f4                D_
                0xa00000f6                IX
                0xa00000f8                E_
                0xa00000fc                PC
                0xa0000100                A_
                0xa0000101                H
                0xa0000104                STACK
                0xa0000108                L
                0xa000010c                R
                0xa0000110                int_mode
                0xa0000114                E
                0xa0000115                I
                0xa0000118                cpu_error
                0xa000011c                IY
                0xa000011e                H_
                0xa0000120                F
                0xa0000124                int_type
 .scommon       0xa0000128       0x24 build/default/production/src/badge.o
                0xa0000128                term_pointer
                0xa000012c                j
                0xa0000130                get_stat
                0xa0000131                stdio_src
                0xa0000132                cmd_line_key_stat_old
                0xa0000134                vertical_shift
                0xa0000136                prog_ptr
                0xa0000138                i
                0xa000013c                cmd_line_pointer
                0xa000013d                brk_key
                0xa0000140                ticks
                0xa0000144                char_out
                0xa0000145                prompt
                0xa0000148                len
 .scommon       0xa000014c        0x9 build/default/production/src/box_game.o
                0xa000014c                x_loc
                0xa0000150                BOX_piece
                0xa0000154                y_loc
 *fill*         0xa0000155        0x1 
 .scommon       0xa0000156        0x4 build/default/production/src/disp.o
                0xa0000156                cursor_blink_cnt
                0xa0000158                cursor_visible
                0xa0000159                cursor_blink_state
 .scommon       0xa000015a        0x9 build/default/production/src/hw.o
                0xa000015a                rnd_var2
                0xa000015c                key_char
                0xa000015d                key
                0xa000015e                rnd_var3
                0xa0000160                rnd_var1
                0xa0000162                key_last
 .scommon       0xa0000163        0x0 build/default/production/src/main.o
 .scommon       0xa0000163        0x0 build/default/production/src/post.o
 *fill*         0xa0000163        0x1 
 .scommon       0xa0000164       0x1a build/default/production/src/snake.o
                0xa0000164                dirX
                0xa0000168                TimingDelay
                0xa000016c                tail
                0xa0000170                fruit
                0xa0000174                change_dir
                0xa0000176                snake_length_limit
                0xa0000178                head
                0xa000017a                dirY
                0xa000017c                snake_length_current
 *fill*         0xa000017e        0x2 
 .scommon       0xa0000180        0xa build/default/production/src/tetrapuzz.o
                0xa0000180                wait_until
                0xa0000184                sstr
                0xa0000188                state
 .scommon       0xa000018a        0xc build/default/production/src/vt100.o
                0xa000018a                bufsize
                0xa000018c                bufhead
                0xa000018e                cur_type
                0xa0000190                count
                0xa0000192                cur_blink
                0xa0000193                color_composite
                0xa0000194                buftail
 .scommon       0xa0000196        0x0 build/default/production/src/nyancat.o
 .scommon       0xa0000196        0x0 build/default/production/src/user_program.o
 .scommon       0xa0000196        0x0 build/default/production/src/puzzle.o
                0xa0000196                _sbss_end = .
                0xa0000198                . = ALIGN (0x4)
 *fill*         0xa0000196        0x2 

.bss            0xa0000198    0x1b868
 *(.dynbss)
 *(COMMON)
 COMMON         0xa0000198       0x1c build/default/production/src/basic/tokenizer.o
                0xa0000198                _scanner
 COMMON         0xa00001b4       0x78 build/default/production/src/basic/ubasic.o
                0xa00001b4                qrText
                0xa0000204                err_msg
 COMMON         0xa000022c     0x68a0 build/default/production/src/Z80/hwz.o
                0xa000022c                disk_temp
                0xa00002ac                conin_buffer
                0xa00002cc                ram_disk
                0xa0005acc                flash_buff
 COMMON         0xa0006acc    0x10000 build/default/production/src/Z80/simglb.o
                0xa0006acc                ram
 *fill*         0xa0016acc        0x4 
 COMMON         0xa0016ad0     0x4866 build/default/production/src/badge.o
                0xa0016ad0                key_buffer
                0xa0016ae0                jbuf
                0xa0016ba0                tprog
                0xa0016c04                color_buffer
                0xa0016f4c                disp_buffer
                0xa0017294                stdio_local_buff
                0xa00172b0                cmd_line_buff
                0xa0017300                bprog
                0xa001b304                stdio_buff
 *fill*         0xa001b336        0x2 
 COMMON         0xa001b338       0x1e build/default/production/src/box_game.o
                0xa001b338                BOX_location
 *fill*         0xa001b356        0x2 
 COMMON         0xa001b358      0x640 build/default/production/src/snake.o
                0xa001b358                corners
 COMMON         0xa001b998       0x66 build/default/production/src/vt100.o
                0xa001b998                msg1
                0xa001b9cc                buf
                0xa001ba00                . = ALIGN ((. != 0x0)?0x4:0x1)
 *fill*         0xa001b9fe        0x2 
                0xa001ba00                . = ALIGN (0x4)
                0xa001ba00                _end = .
                0xa001ba00                _bss_end = .
                0x00020000                _bmxdudba_address = 0x20000
                0x00020000                _bmxdupba_address = 0x20000

/DISCARD/
 *(.pdr)
 *(.rel.dyn)
 *(.note.GNU-stack)
 *(.note.GNU-stack)
 *(.gnu_debuglink)
 *(.gnu.lto_*)
 *(.discard)

.gptab.sdata
 *(.gptab.data)
 *(.gptab.sdata)

.gptab.sbss
 *(.gptab.bss)
 *(.gptab.sbss)

.mdebug.abi32   0xa001ba00        0x0
 *(.mdebug.abi32)
 .mdebug.abi32  0xa001ba00        0x0 build/default/production/src/basic/tokenizer.o
 .mdebug.abi32  0xa001ba00        0x0 build/default/production/src/basic/ubasic.o
 .mdebug.abi32  0xa001ba00        0x0 build/default/production/src/basic/tokenizer_fast.o
 .mdebug.abi32  0xa001ba00        0x0 build/default/production/src/basic/tokenizer_slow.o
 .mdebug.abi32  0xa001ba00        0x0 build/default/production/src/Z80/sim2.o
 .mdebug.abi32  0xa001ba00        0x0 build/default/production/src/Z80/sim4.o
 .mdebug.abi32  0xa001ba00        0x0 build/default/production/src/Z80/sim1.o
 .mdebug.abi32  0xa001ba00        0x0 build/default/production/src/Z80/sim3.o
 .mdebug.abi32  0xa001ba00        0x0 build/default/production/src/Z80/iosim.o
 .mdebug.abi32  0xa001ba00        0x0 build/default/production/src/Z80/sim5.o
 .mdebug.abi32  0xa001ba00        0x0 build/default/production/src/Z80/sim7.o
 .mdebug.abi32  0xa001ba00        0x0 build/default/production/src/Z80/simfun.o
 .mdebug.abi32  0xa001ba00        0x0 build/default/production/src/Z80/hwz.o
 .mdebug.abi32  0xa001ba00        0x0 build/default/production/src/Z80/simglb.o
 .mdebug.abi32  0xa001ba00        0x0 build/default/production/src/Z80/sim6.o
 .mdebug.abi32  0xa001ba00        0x0 build/default/production/src/badge.o
 .mdebug.abi32  0xa001ba00        0x0 build/default/production/src/box_game.o
 .mdebug.abi32  0xa001ba00        0x0 build/default/production/src/disp.o
 .mdebug.abi32  0xa001ba00        0x0 build/default/production/src/hw.o
 .mdebug.abi32  0xa001ba00        0x0 build/default/production/src/images.o
 .mdebug.abi32  0xa001ba00        0x0 build/default/production/src/main.o
 .mdebug.abi32  0xa001ba00        0x0 build/default/production/src/post.o
 .mdebug.abi32  0xa001ba00        0x0 build/default/production/src/snake.o
 .mdebug.abi32  0xa001ba00        0x0 build/default/production/src/splash.o
 .mdebug.abi32  0xa001ba00        0x0 build/default/production/src/tetrapuzz.o
 .mdebug.abi32  0xa001ba00        0x0 build/default/production/src/tune_player.o
 .mdebug.abi32  0xa001ba00        0x0 build/default/production/src/vt100.o
 .mdebug.abi32  0xa001ba00        0x0 build/default/production/src/nyancat.o
 .mdebug.abi32  0xa001ba00        0x0 build/default/production/src/user_program.o
 .mdebug.abi32  0xa001ba00        0x0 build/default/production/src/puzzle.o
 .mdebug.abi32  0xa001ba00        0x0 build/default/production/src/qrcodegen.o
 .mdebug.abi32  0xa001ba00        0x0 /Applications/microchip/xc32/v2.10/bin/bin/../../lib/gcc/pic32mx/4.8.3/../../../../pic32mx/lib/libmchp_peripheral_32MX370F512H.a(pcache.o)
 .mdebug.abi32  0xa001ba00        0x0 /Applications/microchip/xc32/v2.10/bin/bin/../../lib/gcc/pic32mx/4.8.3/../../../../pic32mx/lib/libmchp_peripheral_32MX370F512H.a(int_disable_interrupts_lib.o)
 .mdebug.abi32  0xa001ba00        0x0 /Applications/microchip/xc32/v2.10/bin/bin/../../lib/gcc/pic32mx/4.8.3/../../../../pic32mx/lib/libmchp_peripheral_32MX370F512H.a(int_restore_interrupts_lib.o)
 .mdebug.abi32  0xa001ba00        0x0 /Applications/microchip/xc32/v2.10/bin/bin/../../lib/gcc/pic32mx/4.8.3/../../../../pic32mx/lib/libmchp_peripheral_32MX370F512H.a(int_enable_mv_int_lib.o)
 .mdebug.abi32  0xa001ba00        0x0 /Applications/microchip/xc32/v2.10/bin/bin/../../lib/gcc/pic32mx/4.8.3/../../../../pic32mx/lib/libmchp_peripheral_32MX370F512H.a(int_enable_interrupts_lib.o)
 .mdebug.abi32  0xa001ba00        0x0 /Applications/microchip/xc32/v2.10/bin/bin/../../lib/gcc/pic32mx/4.8.3/libgcc.a(_umoddi3.o)
 .mdebug.abi32  0xa001ba00        0x0 /Applications/microchip/xc32/v2.10/bin/bin/../../lib/gcc/pic32mx/4.8.3/../../../../pic32mx/lib/libpic32.a(default-bootstrap-exception-handler.o)
 .mdebug.abi32  0xa001ba00        0x0 /Applications/microchip/xc32/v2.10/bin/bin/../../lib/gcc/pic32mx/4.8.3/../../../../pic32mx/lib/libpic32.a(default-on-reset.o)
 .mdebug.abi32  0xa001ba00        0x0 /Applications/microchip/xc32/v2.10/bin/bin/../../lib/gcc/pic32mx/4.8.3/../../../../pic32mx/lib/libpic32.a(default-on-bootstrap.o)
 .mdebug.abi32  0xa001ba00        0x0 /Applications/microchip/xc32/v2.10/bin/bin/../../lib/gcc/pic32mx/4.8.3/../../../../pic32mx/lib/libpic32.a(default-general-exception-handler.o)
 .mdebug.abi32  0xa001ba00        0x0 /Applications/microchip/xc32/v2.10/bin/bin/../../lib/gcc/pic32mx/4.8.3/../../../../pic32mx/lib/libpic32.a(defaultinterrupt.o)
 .mdebug.abi32  0xa001ba00        0x0 /Applications/microchip/xc32/v2.10/bin/bin/../../lib/gcc/pic32mx/4.8.3/../../../../pic32mx/lib/liblega-c.a(strcat.o)
 .mdebug.abi32  0xa001ba00        0x0 /Applications/microchip/xc32/v2.10/bin/bin/../../lib/gcc/pic32mx/4.8.3/../../../../pic32mx/lib/liblega-c.a(strncmp.o)
 .mdebug.abi32  0xa001ba00        0x0 /Applications/microchip/xc32/v2.10/bin/bin/../../lib/gcc/pic32mx/4.8.3/../../../../pic32mx/lib/liblega-c.a(strncpy.o)
 .mdebug.abi32  0xa001ba00        0x0 /Applications/microchip/xc32/v2.10/bin/bin/../../lib/gcc/pic32mx/4.8.3/../../../../pic32mx/lib/liblega-c.a(strchr.o)
 .mdebug.abi32  0xa001ba00        0x0 /Applications/microchip/xc32/v2.10/bin/bin/../../lib/gcc/pic32mx/4.8.3/../../../../pic32mx/lib/liblega-c.a(memmove.o)
 .mdebug.abi32  0xa001ba00        0x0 /Applications/microchip/xc32/v2.10/bin/bin/../../lib/gcc/pic32mx/4.8.3/../../../../pic32mx/lib/liblega-c.a(ctype.o)
 .mdebug.abi32  0xa001ba00        0x0 /Applications/microchip/xc32/v2.10/bin/bin/../../lib/gcc/pic32mx/4.8.3/../../../../pic32mx/lib/liblega-c.a(ctypef.o)
 .mdebug.abi32  0xa001ba00        0x0 /Applications/microchip/xc32/v2.10/bin/bin/../../lib/gcc/pic32mx/4.8.3/../../../../pic32mx/lib/liblega-c.a(rand.o)
 .mdebug.abi32  0xa001ba00        0x0 /Applications/microchip/xc32/v2.10/bin/bin/../../lib/gcc/pic32mx/4.8.3/../../../../pic32mx/lib/liblega-c.a(strtol.o)
 .mdebug.abi32  0xa001ba00        0x0 /Applications/microchip/xc32/v2.10/bin/bin/../../lib/gcc/pic32mx/4.8.3/../../../../pic32mx/lib/liblega-c.a(printf_cdnopuxX.eo)
 .mdebug.abi32  0xa001ba00        0x0 /Applications/microchip/xc32/v2.10/bin/bin/../../lib/gcc/pic32mx/4.8.3/../../../../pic32mx/lib/liblega-c.a(sprintf_cdnopsuxX.eo)
 .mdebug.abi32  0xa001ba00        0x0 /Applications/microchip/xc32/v2.10/bin/bin/../../lib/gcc/pic32mx/4.8.3/../../../../pic32mx/lib/liblega-c.a(sscanf_cdnopuxX.eo)
 .mdebug.abi32  0xa001ba00        0x0 /Applications/microchip/xc32/v2.10/bin/bin/../../lib/gcc/pic32mx/4.8.3/../../../../pic32mx/lib/liblega-c.a(stubs.o)
 .mdebug.abi32  0xa001ba00        0x0 /Applications/microchip/xc32/v2.10/bin/bin/../../lib/gcc/pic32mx/4.8.3/../../../../pic32mx/lib/liblega-c.a(fassert.o)
 .mdebug.abi32  0xa001ba00        0x0 /Applications/microchip/xc32/v2.10/bin/bin/../../lib/gcc/pic32mx/4.8.3/../../../../pic32mx/lib/liblega-c.a(errno.o)
 .mdebug.abi32  0xa001ba00        0x0 /Applications/microchip/xc32/v2.10/bin/bin/../../lib/gcc/pic32mx/4.8.3/../../../../pic32mx/lib/liblega-c.a(_doprnt_cdnopsuxX.eo)
 .mdebug.abi32  0xa001ba00        0x0 /Applications/microchip/xc32/v2.10/bin/bin/../../lib/gcc/pic32mx/4.8.3/../../../../pic32mx/lib/liblega-c.a(_iobdata.o)
 .mdebug.abi32  0xa001ba00        0x0 /Applications/microchip/xc32/v2.10/bin/bin/../../lib/gcc/pic32mx/4.8.3/../../../../pic32mx/lib/liblega-c.a(_iobfuncs.o)
 .mdebug.abi32  0xa001ba00        0x0 /Applications/microchip/xc32/v2.10/bin/bin/../../lib/gcc/pic32mx/4.8.3/../../../../pic32mx/lib/liblega-c.a(_iobstring.o)
 .mdebug.abi32  0xa001ba00        0x0 /Applications/microchip/xc32/v2.10/bin/bin/../../lib/gcc/pic32mx/4.8.3/../../../../pic32mx/lib/liblega-c.a(fputc.o)
 .mdebug.abi32  0xa001ba00        0x0 /Applications/microchip/xc32/v2.10/bin/bin/../../lib/gcc/pic32mx/4.8.3/../../../../pic32mx/lib/liblega-c.a(_doscan.o)
 .mdebug.abi32  0xa001ba00        0x0 /Applications/microchip/xc32/v2.10/bin/bin/../../lib/gcc/pic32mx/4.8.3/../../../../pic32mx/lib/liblega-c.a(fprintf.o)
 .mdebug.abi32  0xa001ba00        0x0 /Applications/microchip/xc32/v2.10/bin/bin/../../lib/gcc/pic32mx/4.8.3/../../../../pic32mx/lib/liblega-c.a(abort.o)
 .mdebug.abi32  0xa001ba00        0x0 /Applications/microchip/xc32/v2.10/bin/bin/../../lib/gcc/pic32mx/4.8.3/../../../../pic32mx/lib/liblega-c.a(malloc.o)
 .mdebug.abi32  0xa001ba00        0x0 /Applications/microchip/xc32/v2.10/bin/bin/../../lib/gcc/pic32mx/4.8.3/../../../../pic32mx/lib/liblega-c.a(malloc_realloc.o)
 .mdebug.abi32  0xa001ba00        0x0 /Applications/microchip/xc32/v2.10/bin/bin/../../lib/gcc/pic32mx/4.8.3/../../../../pic32mx/lib/liblega-c.a(strtoul.o)
 .mdebug.abi32  0xa001ba00        0x0 /Applications/microchip/xc32/v2.10/bin/bin/../../lib/gcc/pic32mx/4.8.3/../../../../pic32mx/lib/liblega-c.a(strtoll.o)
 .mdebug.abi32  0xa001ba00        0x0 /Applications/microchip/xc32/v2.10/bin/bin/../../lib/gcc/pic32mx/4.8.3/../../../../pic32mx/lib/liblega-c.a(strtoull.o)
 .mdebug.abi32  0xa001ba00        0x0 /Applications/microchip/xc32/v2.10/bin/bin/../../lib/gcc/pic32mx/4.8.3/../../../../pic32mx/lib/liblega-c.a(strtod.o)
 .mdebug.abi32  0xa001ba00        0x0 /Applications/microchip/xc32/v2.10/bin/bin/../../lib/gcc/pic32mx/4.8.3/../../../../pic32mx/lib/liblega-c.a(strtof.o)
 .mdebug.abi32  0xa001ba00        0x0 /Applications/microchip/xc32/v2.10/bin/bin/../../lib/gcc/pic32mx/4.8.3/../../../../pic32mx/lib/liblega-c.a(fullexit.o)
 .mdebug.abi32  0xa001ba00        0x0 /Applications/microchip/xc32/v2.10/bin/bin/../../lib/gcc/pic32mx/4.8.3/../../../../pic32mx/lib/liblega-c.a(_doprnt.o)
 .mdebug.abi32  0xa001ba00        0x0 /Applications/microchip/xc32/v2.10/bin/bin/../../lib/gcc/pic32mx/4.8.3/../../../../pic32mx/lib/liblega-c.a(fgetc.o)
 .mdebug.abi32  0xa001ba00        0x0 /Applications/microchip/xc32/v2.10/bin/bin/../../lib/gcc/pic32mx/4.8.3/../../../../pic32mx/lib/liblega-c.a(ungetc.o)
 .mdebug.abi32  0xa001ba00        0x0 /Applications/microchip/xc32/v2.10/bin/bin/../../lib/gcc/pic32mx/4.8.3/../../../../pic32mx/lib/liblega-c.a(_ioinit.o)
 .mdebug.abi32  0xa001ba00        0x0 /Applications/microchip/xc32/v2.10/bin/bin/../../lib/gcc/pic32mx/4.8.3/../../../../pic32mx/lib/liblega-c.a(_cleanup.o)
 .mdebug.abi32  0xa001ba00        0x0 /Applications/microchip/xc32/v2.10/bin/bin/../../lib/gcc/pic32mx/4.8.3/../../../../pic32mx/lib/liblega-c.a(_bufproc.o)
 .mdebug.abi32  0xa001ba00        0x0 /Applications/microchip/xc32/v2.10/bin/bin/../../lib/gcc/pic32mx/4.8.3/../../../../pic32mx/lib/libm.a(__strtod.o)
 .mdebug.abi32  0xa001ba00        0x0 /Applications/microchip/xc32/v2.10/bin/bin/../../lib/gcc/pic32mx/4.8.3/../../../../pic32mx/lib/libm.a(__strtof.o)
 .mdebug.abi32  0xa001ba00        0x0 /Applications/microchip/xc32/v2.10/bin/bin/../../lib/gcc/pic32mx/4.8.3/../../../../pic32mx/lib/libe.a(_ldexp.o)
 .mdebug.abi32  0xa001ba00        0x0 /Applications/microchip/xc32/v2.10/bin/bin/../../lib/gcc/pic32mx/4.8.3/../../../../pic32mx/lib/libe.a(_ldexpf.o)
 .mdebug.abi32  0xa001ba00        0x0 /Applications/microchip/xc32/v2.10/bin/bin/../../lib/gcc/pic32mx/4.8.3/libgcc.a(_lshrdi3.o)
 .mdebug.abi32  0xa001ba00        0x0 /Applications/microchip/xc32/v2.10/bin/bin/../../lib/gcc/pic32mx/4.8.3/libgcc.a(_ashldi3.o)
 .mdebug.abi32  0xa001ba00        0x0 /Applications/microchip/xc32/v2.10/bin/bin/../../lib/gcc/pic32mx/4.8.3/libgcc.a(_divdi3.o)
 .mdebug.abi32  0xa001ba00        0x0 /Applications/microchip/xc32/v2.10/bin/bin/../../lib/gcc/pic32mx/4.8.3/libgcc.a(_udivdi3.o)
 .mdebug.abi32  0xa001ba00        0x0 /Applications/microchip/xc32/v2.10/bin/bin/../../lib/gcc/pic32mx/4.8.3/../../../../pic32mx/lib/libpic32.a(sbrk.o)
 .mdebug.abi32  0xa001ba00        0x0 /Applications/microchip/xc32/v2.10/bin/bin/../../lib/gcc/pic32mx/4.8.3/../../../../pic32mx/lib/libpic32.a(_exit.o)
 .mdebug.abi32  0xa001ba00        0x0 /Applications/microchip/xc32/v2.10/bin/bin/../../lib/gcc/pic32mx/4.8.3/../../../../pic32mx/lib/libpic32.a(isatty.o)
 .mdebug.abi32  0xa001ba00        0x0 /Applications/microchip/xc32/v2.10/bin/bin/../../lib/gcc/pic32mx/4.8.3/../../../../pic32mx/lib/libpic32.a(_mon_getc.o)
 .mdebug.abi32  0xa001ba00        0x0 /Applications/microchip/xc32/v2.10/bin/bin/../../lib/gcc/pic32mx/4.8.3/../../../../pic32mx/lib/libpic32.a(_mon_write.o)
 .mdebug.abi32  0xa001ba00        0x0 /Applications/microchip/xc32/v2.10/bin/bin/../../lib/gcc/pic32mx/4.8.3/../../../../pic32mx/lib/libpic32.a(xc32_uart.o)
 .mdebug.abi32  0xa001ba00        0x0 /Applications/microchip/xc32/v2.10/bin/bin/../../lib/gcc/pic32mx/4.8.3/../../../../pic32mx/lib/libpic32.a(_mon_putc.o)

.mdebug.abiN32
 *(.mdebug.abiN32)

.mdebug.abi64
 *(.mdebug.abi64)

.mdebug.abiO64
 *(.mdebug.abiO64)

.mdebug.eabi32
 *(.mdebug.eabi32)

.mdebug.eabi64
 *(.mdebug.eabi64)

.gcc_compiled_long32
 *(.gcc_compiled_long32)

.gcc_compiled_long64
 *(.gcc_compiled_long64)

.stab
 *(.stab)

.stabstr
 *(.stabstr)

.stab.excl
 *(.stab.excl)

.stab.exclstr
 *(.stab.exclstr)

.stab.index
 *(.stab.index)

.stab.indexstr
 *(.stab.indexstr)

.comment        0x00000000      0xd0f
 *(.comment)
 .comment       0x00000000       0x3c build/default/production/src/basic/tokenizer.o
                                 0x3d (size before relaxing)
 .comment       0x00000000       0x3d build/default/production/src/basic/ubasic.o
 .comment       0x00000000       0x3d build/default/production/src/basic/tokenizer_fast.o
 .comment       0x00000000       0x3d build/default/production/src/basic/tokenizer_slow.o
 .comment       0x00000000       0x3d build/default/production/src/Z80/sim2.o
 .comment       0x00000000       0x3d build/default/production/src/Z80/sim4.o
 .comment       0x00000000       0x3d build/default/production/src/Z80/sim1.o
 .comment       0x00000000       0x3d build/default/production/src/Z80/sim3.o
 .comment       0x00000000       0x3d build/default/production/src/Z80/iosim.o
 .comment       0x00000000       0x3d build/default/production/src/Z80/sim5.o
 .comment       0x00000000       0x3d build/default/production/src/Z80/sim7.o
 .comment       0x00000000       0x3d build/default/production/src/Z80/simfun.o
 .comment       0x00000000       0x3d build/default/production/src/Z80/hwz.o
 .comment       0x00000000       0x3d build/default/production/src/Z80/simglb.o
 .comment       0x00000000       0x3d build/default/production/src/Z80/sim6.o
 .comment       0x00000000       0x3d build/default/production/src/badge.o
 .comment       0x00000000       0x3d build/default/production/src/box_game.o
 .comment       0x00000000       0x3d build/default/production/src/disp.o
 .comment       0x00000000       0x3d build/default/production/src/hw.o
 .comment       0x00000000       0x3d build/default/production/src/images.o
 .comment       0x00000000       0x3d build/default/production/src/main.o
 .comment       0x00000000       0x3d build/default/production/src/post.o
 .comment       0x00000000       0x3d build/default/production/src/snake.o
 .comment       0x00000000       0x3d build/default/production/src/splash.o
 .comment       0x00000000       0x3d build/default/production/src/tetrapuzz.o
 .comment       0x00000000       0x3d build/default/production/src/tune_player.o
 .comment       0x00000000       0x3d build/default/production/src/vt100.o
 .comment       0x00000000       0x3d build/default/production/src/nyancat.o
 .comment       0x00000000       0x3d build/default/production/src/user_program.o
 .comment       0x00000000       0x3d build/default/production/src/puzzle.o
 .comment       0x00000000       0x3d build/default/production/src/qrcodegen.o
 .comment       0x0000003c       0x3c /Applications/microchip/xc32/v2.10/bin/bin/../../lib/gcc/pic32mx/4.8.3/../../../../pic32mx/lib/libmchp_peripheral_32MX370F512H.a(pcache.o)
                                 0x3d (size before relaxing)
 .comment       0x00000000       0x3d /Applications/microchip/xc32/v2.10/bin/bin/../../lib/gcc/pic32mx/4.8.3/../../../../pic32mx/lib/libmchp_peripheral_32MX370F512H.a(int_disable_interrupts_lib.o)
 .comment       0x00000000       0x3d /Applications/microchip/xc32/v2.10/bin/bin/../../lib/gcc/pic32mx/4.8.3/../../../../pic32mx/lib/libmchp_peripheral_32MX370F512H.a(int_restore_interrupts_lib.o)
 .comment       0x00000000       0x3d /Applications/microchip/xc32/v2.10/bin/bin/../../lib/gcc/pic32mx/4.8.3/../../../../pic32mx/lib/libmchp_peripheral_32MX370F512H.a(int_enable_mv_int_lib.o)
 .comment       0x00000000       0x3d /Applications/microchip/xc32/v2.10/bin/bin/../../lib/gcc/pic32mx/4.8.3/../../../../pic32mx/lib/libmchp_peripheral_32MX370F512H.a(int_enable_interrupts_lib.o)
 .comment       0x00000000       0x3d /Applications/microchip/xc32/v2.10/bin/bin/../../lib/gcc/pic32mx/4.8.3/libgcc.a(_umoddi3.o)
 .comment       0x00000078       0x18 /Applications/microchip/xc32/v2.10/bin/bin/../../lib/gcc/pic32mx/4.8.3/../../../../pic32mx/lib/libpic32.a(memset.o)
                                 0x19 (size before relaxing)
 .comment       0x00000090       0x19 /Applications/microchip/xc32/v2.10/bin/bin/../../lib/gcc/pic32mx/4.8.3/../../../../pic32mx/lib/libpic32.a(strcmp.o)
                                 0x1a (size before relaxing)
 .comment       0x000000a9       0x19 /Applications/microchip/xc32/v2.10/bin/bin/../../lib/gcc/pic32mx/4.8.3/../../../../pic32mx/lib/libpic32.a(strcpy.o)
                                 0x1a (size before relaxing)
 .comment       0x000000c2       0x19 /Applications/microchip/xc32/v2.10/bin/bin/../../lib/gcc/pic32mx/4.8.3/../../../../pic32mx/lib/libpic32.a(strlen.o)
                                 0x1a (size before relaxing)
 .comment       0x00000000       0x3d /Applications/microchip/xc32/v2.10/bin/bin/../../lib/gcc/pic32mx/4.8.3/../../../../pic32mx/lib/libpic32.a(default-bootstrap-exception-handler.o)
 .comment       0x00000000       0x3d /Applications/microchip/xc32/v2.10/bin/bin/../../lib/gcc/pic32mx/4.8.3/../../../../pic32mx/lib/libpic32.a(default-on-reset.o)
 .comment       0x00000000       0x3d /Applications/microchip/xc32/v2.10/bin/bin/../../lib/gcc/pic32mx/4.8.3/../../../../pic32mx/lib/libpic32.a(default-on-bootstrap.o)
 .comment       0x00000000       0x3d /Applications/microchip/xc32/v2.10/bin/bin/../../lib/gcc/pic32mx/4.8.3/../../../../pic32mx/lib/libpic32.a(default-general-exception-handler.o)
 .comment       0x00000000       0x3d /Applications/microchip/xc32/v2.10/bin/bin/../../lib/gcc/pic32mx/4.8.3/../../../../pic32mx/lib/libpic32.a(defaultinterrupt.o)
 .comment       0x000000db       0x4f /Applications/microchip/xc32/v2.10/bin/bin/../../lib/gcc/pic32mx/4.8.3/../../../../pic32mx/lib/liblega-c.a(strcat.o)
                                 0x8c (size before relaxing)
 .comment       0x0000012a       0x50 /Applications/microchip/xc32/v2.10/bin/bin/../../lib/gcc/pic32mx/4.8.3/../../../../pic32mx/lib/liblega-c.a(strncmp.o)
                                 0x8d (size before relaxing)
 .comment       0x0000017a       0x50 /Applications/microchip/xc32/v2.10/bin/bin/../../lib/gcc/pic32mx/4.8.3/../../../../pic32mx/lib/liblega-c.a(strncpy.o)
                                 0x8d (size before relaxing)
 .comment       0x000001ca       0x4f /Applications/microchip/xc32/v2.10/bin/bin/../../lib/gcc/pic32mx/4.8.3/../../../../pic32mx/lib/liblega-c.a(strchr.o)
                                 0x8c (size before relaxing)
 .comment       0x00000219       0x50 /Applications/microchip/xc32/v2.10/bin/bin/../../lib/gcc/pic32mx/4.8.3/../../../../pic32mx/lib/liblega-c.a(memmove.o)
                                 0x8d (size before relaxing)
 .comment       0x00000269       0x4e /Applications/microchip/xc32/v2.10/bin/bin/../../lib/gcc/pic32mx/4.8.3/../../../../pic32mx/lib/liblega-c.a(ctype.o)
                                 0x8b (size before relaxing)
 .comment       0x000002b7       0x4f /Applications/microchip/xc32/v2.10/bin/bin/../../lib/gcc/pic32mx/4.8.3/../../../../pic32mx/lib/liblega-c.a(ctypef.o)
                                 0x8c (size before relaxing)
 .comment       0x00000306       0x4d /Applications/microchip/xc32/v2.10/bin/bin/../../lib/gcc/pic32mx/4.8.3/../../../../pic32mx/lib/liblega-c.a(rand.o)
                                 0x8a (size before relaxing)
 .comment       0x00000353       0x4f /Applications/microchip/xc32/v2.10/bin/bin/../../lib/gcc/pic32mx/4.8.3/../../../../pic32mx/lib/liblega-c.a(strtol.o)
                                 0x8c (size before relaxing)
 .comment       0x000003a2       0x51 /Applications/microchip/xc32/v2.10/bin/bin/../../lib/gcc/pic32mx/4.8.3/../../../../pic32mx/lib/liblega-c.a(printf_cdnopuxX.eo)
                                 0x8e (size before relaxing)
 .comment       0x000003f3       0x52 /Applications/microchip/xc32/v2.10/bin/bin/../../lib/gcc/pic32mx/4.8.3/../../../../pic32mx/lib/liblega-c.a(sprintf_cdnopsuxX.eo)
                                 0x8f (size before relaxing)
 .comment       0x00000445       0x51 /Applications/microchip/xc32/v2.10/bin/bin/../../lib/gcc/pic32mx/4.8.3/../../../../pic32mx/lib/liblega-c.a(sscanf_cdnopuxX.eo)
                                 0x8e (size before relaxing)
 .comment       0x00000496       0x4e /Applications/microchip/xc32/v2.10/bin/bin/../../lib/gcc/pic32mx/4.8.3/../../../../pic32mx/lib/liblega-c.a(stubs.o)
                                 0x8b (size before relaxing)
 .comment       0x00000000       0x3d /Applications/microchip/xc32/v2.10/bin/bin/../../lib/gcc/pic32mx/4.8.3/../../../../pic32mx/lib/liblega-c.a(fassert.o)
 .comment       0x000004e4       0x4e /Applications/microchip/xc32/v2.10/bin/bin/../../lib/gcc/pic32mx/4.8.3/../../../../pic32mx/lib/liblega-c.a(errno.o)
                                 0x8b (size before relaxing)
 .comment       0x00000532       0x52 /Applications/microchip/xc32/v2.10/bin/bin/../../lib/gcc/pic32mx/4.8.3/../../../../pic32mx/lib/liblega-c.a(_doprnt_cdnopsuxX.eo)
                                 0x8f (size before relaxing)
 .comment       0x00000584       0x53 /Applications/microchip/xc32/v2.10/bin/bin/../../lib/gcc/pic32mx/4.8.3/../../../../pic32mx/lib/liblega-c.a(_iobdata.o)
                                 0x90 (size before relaxing)
 .comment       0x000005d7       0x54 /Applications/microchip/xc32/v2.10/bin/bin/../../lib/gcc/pic32mx/4.8.3/../../../../pic32mx/lib/liblega-c.a(_iobfuncs.o)
                                 0x91 (size before relaxing)
 .comment       0x0000062b       0x55 /Applications/microchip/xc32/v2.10/bin/bin/../../lib/gcc/pic32mx/4.8.3/../../../../pic32mx/lib/liblega-c.a(_iobstring.o)
                                 0x92 (size before relaxing)
 .comment       0x00000680       0x50 /Applications/microchip/xc32/v2.10/bin/bin/../../lib/gcc/pic32mx/4.8.3/../../../../pic32mx/lib/liblega-c.a(fputc.o)
                                 0x8d (size before relaxing)
 .comment       0x000006d0       0x52 /Applications/microchip/xc32/v2.10/bin/bin/../../lib/gcc/pic32mx/4.8.3/../../../../pic32mx/lib/liblega-c.a(_doscan.o)
                                 0x8f (size before relaxing)
 .comment       0x00000722       0x52 /Applications/microchip/xc32/v2.10/bin/bin/../../lib/gcc/pic32mx/4.8.3/../../../../pic32mx/lib/liblega-c.a(fprintf.o)
                                 0x8f (size before relaxing)
 .comment       0x00000774       0x4e /Applications/microchip/xc32/v2.10/bin/bin/../../lib/gcc/pic32mx/4.8.3/../../../../pic32mx/lib/liblega-c.a(abort.o)
                                 0x8b (size before relaxing)
 .comment       0x00000000       0x3d /Applications/microchip/xc32/v2.10/bin/bin/../../lib/gcc/pic32mx/4.8.3/../../../../pic32mx/lib/liblega-c.a(malloc.o)
 .comment       0x00000000       0x3d /Applications/microchip/xc32/v2.10/bin/bin/../../lib/gcc/pic32mx/4.8.3/../../../../pic32mx/lib/liblega-c.a(malloc_realloc.o)
 .comment       0x000007c2       0x50 /Applications/microchip/xc32/v2.10/bin/bin/../../lib/gcc/pic32mx/4.8.3/../../../../pic32mx/lib/liblega-c.a(strtoul.o)
                                 0x8d (size before relaxing)
 .comment       0x00000812       0x50 /Applications/microchip/xc32/v2.10/bin/bin/../../lib/gcc/pic32mx/4.8.3/../../../../pic32mx/lib/liblega-c.a(strtoll.o)
                                 0x8d (size before relaxing)
 .comment       0x00000862       0x51 /Applications/microchip/xc32/v2.10/bin/bin/../../lib/gcc/pic32mx/4.8.3/../../../../pic32mx/lib/liblega-c.a(strtoull.o)
                                 0x8e (size before relaxing)
 .comment       0x000008b3       0x4f /Applications/microchip/xc32/v2.10/bin/bin/../../lib/gcc/pic32mx/4.8.3/../../../../pic32mx/lib/liblega-c.a(strtod.o)
                                 0x8c (size before relaxing)
 .comment       0x00000000       0x8c /Applications/microchip/xc32/v2.10/bin/bin/../../lib/gcc/pic32mx/4.8.3/../../../../pic32mx/lib/liblega-c.a(strtof.o)
 .comment       0x00000902       0x51 /Applications/microchip/xc32/v2.10/bin/bin/../../lib/gcc/pic32mx/4.8.3/../../../../pic32mx/lib/liblega-c.a(fullexit.o)
                                 0x8e (size before relaxing)
 .comment       0x00000000       0x8f /Applications/microchip/xc32/v2.10/bin/bin/../../lib/gcc/pic32mx/4.8.3/../../../../pic32mx/lib/liblega-c.a(_doprnt.o)
 .comment       0x00000953       0x50 /Applications/microchip/xc32/v2.10/bin/bin/../../lib/gcc/pic32mx/4.8.3/../../../../pic32mx/lib/liblega-c.a(fgetc.o)
                                 0x8d (size before relaxing)
 .comment       0x000009a3       0x51 /Applications/microchip/xc32/v2.10/bin/bin/../../lib/gcc/pic32mx/4.8.3/../../../../pic32mx/lib/liblega-c.a(ungetc.o)
                                 0x8e (size before relaxing)
 .comment       0x000009f4       0x52 /Applications/microchip/xc32/v2.10/bin/bin/../../lib/gcc/pic32mx/4.8.3/../../../../pic32mx/lib/liblega-c.a(_ioinit.o)
                                 0x8f (size before relaxing)
 .comment       0x00000a46       0x51 /Applications/microchip/xc32/v2.10/bin/bin/../../lib/gcc/pic32mx/4.8.3/../../../../pic32mx/lib/liblega-c.a(_cleanup.o)
                                 0x8e (size before relaxing)
 .comment       0x00000a97       0x53 /Applications/microchip/xc32/v2.10/bin/bin/../../lib/gcc/pic32mx/4.8.3/../../../../pic32mx/lib/liblega-c.a(_bufproc.o)
                                 0x90 (size before relaxing)
 .comment       0x00000aea       0x9d /Applications/microchip/xc32/v2.10/bin/bin/../../lib/gcc/pic32mx/4.8.3/../../../../pic32mx/lib/libm.a(__strtod.o)
                                 0xda (size before relaxing)
 .comment       0x00000b87       0x4f /Applications/microchip/xc32/v2.10/bin/bin/../../lib/gcc/pic32mx/4.8.3/../../../../pic32mx/lib/libm.a(__strtof.o)
                                 0xda (size before relaxing)
 .comment       0x00000bd6       0x50 /Applications/microchip/xc32/v2.10/bin/bin/../../lib/gcc/pic32mx/4.8.3/../../../../pic32mx/lib/libe.a(_ldexp.o)
                                 0xdb (size before relaxing)
 .comment       0x00000c26       0x50 /Applications/microchip/xc32/v2.10/bin/bin/../../lib/gcc/pic32mx/4.8.3/../../../../pic32mx/lib/libe.a(_ldexpf.o)
                                 0xdb (size before relaxing)
 .comment       0x00000000       0x3d /Applications/microchip/xc32/v2.10/bin/bin/../../lib/gcc/pic32mx/4.8.3/libgcc.a(_lshrdi3.o)
 .comment       0x00000000       0x3d /Applications/microchip/xc32/v2.10/bin/bin/../../lib/gcc/pic32mx/4.8.3/libgcc.a(_ashldi3.o)
 .comment       0x00000000       0x3d /Applications/microchip/xc32/v2.10/bin/bin/../../lib/gcc/pic32mx/4.8.3/libgcc.a(_divdi3.o)
 .comment       0x00000000       0x3d /Applications/microchip/xc32/v2.10/bin/bin/../../lib/gcc/pic32mx/4.8.3/libgcc.a(_udivdi3.o)
 .comment       0x00000c76       0x4b /Applications/microchip/xc32/v2.10/bin/bin/../../lib/gcc/pic32mx/4.8.3/../../../../pic32mx/lib/libpic32.a(sbrk.o)
                                 0x88 (size before relaxing)
 .comment       0x00000000       0x3d /Applications/microchip/xc32/v2.10/bin/bin/../../lib/gcc/pic32mx/4.8.3/../../../../pic32mx/lib/libpic32.a(_exit.o)
 .comment       0x00000cc1       0x4e /Applications/microchip/xc32/v2.10/bin/bin/../../lib/gcc/pic32mx/4.8.3/../../../../pic32mx/lib/libpic32.a(isatty.o)
                                 0x8b (size before relaxing)
 .comment       0x00000000       0x3d /Applications/microchip/xc32/v2.10/bin/bin/../../lib/gcc/pic32mx/4.8.3/../../../../pic32mx/lib/libpic32.a(_mon_getc.o)
 .comment       0x00000000       0x3d /Applications/microchip/xc32/v2.10/bin/bin/../../lib/gcc/pic32mx/4.8.3/../../../../pic32mx/lib/libpic32.a(_mon_write.o)
 .comment       0x00000000       0x3d /Applications/microchip/xc32/v2.10/bin/bin/../../lib/gcc/pic32mx/4.8.3/../../../../pic32mx/lib/libpic32.a(xc32_uart.o)
 .comment       0x00000000       0x3d /Applications/microchip/xc32/v2.10/bin/bin/../../lib/gcc/pic32mx/4.8.3/../../../../pic32mx/lib/libpic32.a(_mon_putc.o)

.debug
 *(.debug)

.line
 *(.line)

.debug_srcinfo
 *(.debug_srcinfo)

.debug_sfnames
 *(.debug_sfnames)

.debug_aranges  0x00000000      0x738
 *(.debug_aranges)
 .debug_aranges
                0x00000000       0x20 build/default/production/src/basic/tokenizer.o
 .debug_aranges
                0x00000020       0x20 build/default/production/src/basic/ubasic.o
 .debug_aranges
                0x00000040       0x20 build/default/production/src/basic/tokenizer_fast.o
 .debug_aranges
                0x00000060       0x20 build/default/production/src/basic/tokenizer_slow.o
 .debug_aranges
                0x00000080       0x20 build/default/production/src/Z80/sim2.o
 .debug_aranges
                0x000000a0       0x20 build/default/production/src/Z80/sim4.o
 .debug_aranges
                0x000000c0       0x20 build/default/production/src/Z80/sim1.o
 .debug_aranges
                0x000000e0       0x20 build/default/production/src/Z80/sim3.o
 .debug_aranges
                0x00000100       0x20 build/default/production/src/Z80/iosim.o
 .debug_aranges
                0x00000120       0x20 build/default/production/src/Z80/sim5.o
 .debug_aranges
                0x00000140       0x20 build/default/production/src/Z80/sim7.o
 .debug_aranges
                0x00000160       0x20 build/default/production/src/Z80/simfun.o
 .debug_aranges
                0x00000180       0x20 build/default/production/src/Z80/hwz.o
 .debug_aranges
                0x000001a0       0x18 build/default/production/src/Z80/simglb.o
 .debug_aranges
                0x000001b8       0x20 build/default/production/src/Z80/sim6.o
 .debug_aranges
                0x000001d8       0x20 build/default/production/src/badge.o
 .debug_aranges
                0x000001f8       0x20 build/default/production/src/box_game.o
 .debug_aranges
                0x00000218       0x20 build/default/production/src/disp.o
 .debug_aranges
                0x00000238       0x20 build/default/production/src/hw.o
 .debug_aranges
                0x00000258       0x18 build/default/production/src/images.o
 .debug_aranges
                0x00000270       0x20 build/default/production/src/main.o
 .debug_aranges
                0x00000290       0x20 build/default/production/src/post.o
 .debug_aranges
                0x000002b0       0x20 build/default/production/src/snake.o
 .debug_aranges
                0x000002d0       0x20 build/default/production/src/splash.o
 .debug_aranges
                0x000002f0       0x20 build/default/production/src/tetrapuzz.o
 .debug_aranges
                0x00000310       0x20 build/default/production/src/tune_player.o
 .debug_aranges
                0x00000330       0x20 build/default/production/src/vt100.o
 .debug_aranges
                0x00000350       0x20 build/default/production/src/nyancat.o
 .debug_aranges
                0x00000370       0x20 build/default/production/src/user_program.o
 .debug_aranges
                0x00000390       0x20 build/default/production/src/puzzle.o
 .debug_aranges
                0x000003b0       0x20 build/default/production/src/qrcodegen.o
 .debug_aranges
                0x000003d0       0x28 /Applications/microchip/xc32/v2.10/bin/bin/../../lib/gcc/pic32mx/4.8.3/../../../../pic32mx/lib/libmchp_peripheral_32MX370F512H.a(pcache.o)
 .debug_aranges
                0x000003f8       0x20 /Applications/microchip/xc32/v2.10/bin/bin/../../lib/gcc/pic32mx/4.8.3/../../../../pic32mx/lib/libmchp_peripheral_32MX370F512H.a(int_disable_interrupts_lib.o)
 .debug_aranges
                0x00000418       0x20 /Applications/microchip/xc32/v2.10/bin/bin/../../lib/gcc/pic32mx/4.8.3/../../../../pic32mx/lib/libmchp_peripheral_32MX370F512H.a(int_restore_interrupts_lib.o)
 .debug_aranges
                0x00000438       0x20 /Applications/microchip/xc32/v2.10/bin/bin/../../lib/gcc/pic32mx/4.8.3/../../../../pic32mx/lib/libmchp_peripheral_32MX370F512H.a(int_enable_mv_int_lib.o)
 .debug_aranges
                0x00000458       0x20 /Applications/microchip/xc32/v2.10/bin/bin/../../lib/gcc/pic32mx/4.8.3/../../../../pic32mx/lib/libmchp_peripheral_32MX370F512H.a(int_enable_interrupts_lib.o)
 .debug_aranges
                0x00000478       0x20 /Applications/microchip/xc32/v2.10/bin/bin/../../lib/gcc/pic32mx/4.8.3/libgcc.a(_umoddi3.o)
 .debug_aranges
                0x00000498       0x20 /Applications/microchip/xc32/v2.10/bin/bin/../../lib/gcc/pic32mx/4.8.3/../../../../pic32mx/lib/libpic32.a(setjmp.o)
 .debug_aranges
                0x000004b8       0x20 /Applications/microchip/xc32/v2.10/bin/bin/../../lib/gcc/pic32mx/4.8.3/../../../../pic32mx/lib/libpic32.a(default-bootstrap-exception-handler.o)
 .debug_aranges
                0x000004d8       0x20 /Applications/microchip/xc32/v2.10/bin/bin/../../lib/gcc/pic32mx/4.8.3/../../../../pic32mx/lib/libpic32.a(default-on-reset.o)
 .debug_aranges
                0x000004f8       0x20 /Applications/microchip/xc32/v2.10/bin/bin/../../lib/gcc/pic32mx/4.8.3/../../../../pic32mx/lib/libpic32.a(default-on-bootstrap.o)
 .debug_aranges
                0x00000518       0x20 /Applications/microchip/xc32/v2.10/bin/bin/../../lib/gcc/pic32mx/4.8.3/../../../../pic32mx/lib/libpic32.a(default-general-exception-handler.o)
 .debug_aranges
                0x00000538       0x20 /Applications/microchip/xc32/v2.10/bin/bin/../../lib/gcc/pic32mx/4.8.3/../../../../pic32mx/lib/libpic32.a(defaultinterrupt.o)
 .debug_aranges
                0x00000558       0x20 /Applications/microchip/xc32/v2.10/bin/bin/../../lib/gcc/pic32mx/4.8.3/../../../../pic32mx/lib/libm.a(__strtod.o)
 .debug_aranges
                0x00000578       0x20 /Applications/microchip/xc32/v2.10/bin/bin/../../lib/gcc/pic32mx/4.8.3/../../../../pic32mx/lib/libm.a(__strtof.o)
 .debug_aranges
                0x00000598       0x20 /Applications/microchip/xc32/v2.10/bin/bin/../../lib/gcc/pic32mx/4.8.3/../../../../pic32mx/lib/libe.a(_ldexp.o)
 .debug_aranges
                0x000005b8       0x20 /Applications/microchip/xc32/v2.10/bin/bin/../../lib/gcc/pic32mx/4.8.3/../../../../pic32mx/lib/libe.a(_ldexpf.o)
 .debug_aranges
                0x000005d8       0x20 /Applications/microchip/xc32/v2.10/bin/bin/../../lib/gcc/pic32mx/4.8.3/libgcc.a(_lshrdi3.o)
 .debug_aranges
                0x000005f8       0x20 /Applications/microchip/xc32/v2.10/bin/bin/../../lib/gcc/pic32mx/4.8.3/libgcc.a(_ashldi3.o)
 .debug_aranges
                0x00000618       0x20 /Applications/microchip/xc32/v2.10/bin/bin/../../lib/gcc/pic32mx/4.8.3/libgcc.a(_divdi3.o)
 .debug_aranges
                0x00000638       0x20 /Applications/microchip/xc32/v2.10/bin/bin/../../lib/gcc/pic32mx/4.8.3/libgcc.a(_udivdi3.o)
 .debug_aranges
                0x00000658       0x40 /Applications/microchip/xc32/v2.10/bin/bin/../../lib/gcc/pic32mx/4.8.3/../../../../pic32mx/lib/libpic32.a(sbrk.o)
 .debug_aranges
                0x00000698       0x20 /Applications/microchip/xc32/v2.10/bin/bin/../../lib/gcc/pic32mx/4.8.3/../../../../pic32mx/lib/libpic32.a(_exit.o)
 .debug_aranges
                0x000006b8       0x20 /Applications/microchip/xc32/v2.10/bin/bin/../../lib/gcc/pic32mx/4.8.3/../../../../pic32mx/lib/libpic32.a(isatty.o)
 .debug_aranges
                0x000006d8       0x20 /Applications/microchip/xc32/v2.10/bin/bin/../../lib/gcc/pic32mx/4.8.3/../../../../pic32mx/lib/libpic32.a(_mon_getc.o)
 .debug_aranges
                0x000006f8       0x20 /Applications/microchip/xc32/v2.10/bin/bin/../../lib/gcc/pic32mx/4.8.3/../../../../pic32mx/lib/libpic32.a(_mon_write.o)
 .debug_aranges
                0x00000718       0x20 /Applications/microchip/xc32/v2.10/bin/bin/../../lib/gcc/pic32mx/4.8.3/../../../../pic32mx/lib/libpic32.a(_mon_putc.o)

.debug_pubnames
 *(.debug_pubnames)

.debug_info     0x00000000    0x3dc6a
 *(.debug_info .gnu.linkonce.wi.*)
 .debug_info    0x00000000     0x10b3 build/default/production/src/basic/tokenizer.o
 .debug_info    0x000010b3     0x2948 build/default/production/src/basic/ubasic.o
 .debug_info    0x000039fb     0x10b8 build/default/production/src/basic/tokenizer_fast.o
 .debug_info    0x00004ab3      0x9fa build/default/production/src/basic/tokenizer_slow.o
 .debug_info    0x000054ad     0x41f3 build/default/production/src/Z80/sim2.o
 .debug_info    0x000096a0     0x1ff2 build/default/production/src/Z80/sim4.o
 .debug_info    0x0000b692     0x470a build/default/production/src/Z80/sim1.o
 .debug_info    0x0000fd9c     0x1746 build/default/production/src/Z80/sim3.o
 .debug_info    0x000114e2     0x1171 build/default/production/src/Z80/iosim.o
 .debug_info    0x00012653     0x1746 build/default/production/src/Z80/sim5.o
 .debug_info    0x00013d99     0x17ec build/default/production/src/Z80/sim7.o
 .debug_info    0x00015585      0xe4e build/default/production/src/Z80/simfun.o
 .debug_info    0x000163d3     0x20c9 build/default/production/src/Z80/hwz.o
 .debug_info    0x0001849c     0x1024 build/default/production/src/Z80/simglb.o
 .debug_info    0x000194c0     0x17ec build/default/production/src/Z80/sim6.o
 .debug_info    0x0001acac     0x56d7 build/default/production/src/badge.o
 .debug_info    0x00020383     0x19a7 build/default/production/src/box_game.o
 .debug_info    0x00021d2a     0x301f build/default/production/src/disp.o
 .debug_info    0x00024d49     0x4df1 build/default/production/src/hw.o
 .debug_info    0x00029b3a      0x235 build/default/production/src/images.o
 .debug_info    0x00029d6f      0x6f6 build/default/production/src/main.o
 .debug_info    0x0002a465     0x263f build/default/production/src/post.o
 .debug_info    0x0002caa4      0xc2c build/default/production/src/snake.o
 .debug_info    0x0002d6d0     0x22f8 build/default/production/src/splash.o
 .debug_info    0x0002f9c8      0x513 build/default/production/src/tetrapuzz.o
 .debug_info    0x0002fedb      0x60a build/default/production/src/tune_player.o
 .debug_info    0x000304e5     0x19b4 build/default/production/src/vt100.o
 .debug_info    0x00031e99      0xe58 build/default/production/src/nyancat.o
 .debug_info    0x00032cf1     0x125d build/default/production/src/user_program.o
 .debug_info    0x00033f4e     0x17f6 build/default/production/src/puzzle.o
 .debug_info    0x00035744     0x524e build/default/production/src/qrcodegen.o
 .debug_info    0x0003a992       0xbe /Applications/microchip/xc32/v2.10/bin/bin/../../lib/gcc/pic32mx/4.8.3/../../../../pic32mx/lib/libmchp_peripheral_32MX370F512H.a(pcache.o)
 .debug_info    0x0003aa50       0xb4 /Applications/microchip/xc32/v2.10/bin/bin/../../lib/gcc/pic32mx/4.8.3/../../../../pic32mx/lib/libmchp_peripheral_32MX370F512H.a(int_disable_interrupts_lib.o)
 .debug_info    0x0003ab04       0xb4 /Applications/microchip/xc32/v2.10/bin/bin/../../lib/gcc/pic32mx/4.8.3/../../../../pic32mx/lib/libmchp_peripheral_32MX370F512H.a(int_restore_interrupts_lib.o)
 .debug_info    0x0003abb8       0xba /Applications/microchip/xc32/v2.10/bin/bin/../../lib/gcc/pic32mx/4.8.3/../../../../pic32mx/lib/libmchp_peripheral_32MX370F512H.a(int_enable_mv_int_lib.o)
 .debug_info    0x0003ac72       0xb2 /Applications/microchip/xc32/v2.10/bin/bin/../../lib/gcc/pic32mx/4.8.3/../../../../pic32mx/lib/libmchp_peripheral_32MX370F512H.a(int_enable_interrupts_lib.o)
 .debug_info    0x0003ad24      0x7f9 /Applications/microchip/xc32/v2.10/bin/bin/../../lib/gcc/pic32mx/4.8.3/libgcc.a(_umoddi3.o)
 .debug_info    0x0003b51d      0x14a /Applications/microchip/xc32/v2.10/bin/bin/../../lib/gcc/pic32mx/4.8.3/../../../../pic32mx/lib/libpic32.a(setjmp.o)
 .debug_info    0x0003b667      0x11f /Applications/microchip/xc32/v2.10/bin/bin/../../lib/gcc/pic32mx/4.8.3/../../../../pic32mx/lib/libpic32.a(default-bootstrap-exception-handler.o)
 .debug_info    0x0003b786       0xf8 /Applications/microchip/xc32/v2.10/bin/bin/../../lib/gcc/pic32mx/4.8.3/../../../../pic32mx/lib/libpic32.a(default-on-reset.o)
 .debug_info    0x0003b87e      0x100 /Applications/microchip/xc32/v2.10/bin/bin/../../lib/gcc/pic32mx/4.8.3/../../../../pic32mx/lib/libpic32.a(default-on-bootstrap.o)
 .debug_info    0x0003b97e      0x11b /Applications/microchip/xc32/v2.10/bin/bin/../../lib/gcc/pic32mx/4.8.3/../../../../pic32mx/lib/libpic32.a(default-general-exception-handler.o)
 .debug_info    0x0003ba99      0x112 /Applications/microchip/xc32/v2.10/bin/bin/../../lib/gcc/pic32mx/4.8.3/../../../../pic32mx/lib/libpic32.a(defaultinterrupt.o)
 .debug_info    0x0003bbab      0x103 /Applications/microchip/xc32/v2.10/bin/bin/../../lib/gcc/pic32mx/4.8.3/../../../../pic32mx/lib/libm.a(__strtod.o)
 .debug_info    0x0003bcae      0x103 /Applications/microchip/xc32/v2.10/bin/bin/../../lib/gcc/pic32mx/4.8.3/../../../../pic32mx/lib/libm.a(__strtof.o)
 .debug_info    0x0003bdb1      0x104 /Applications/microchip/xc32/v2.10/bin/bin/../../lib/gcc/pic32mx/4.8.3/../../../../pic32mx/lib/libe.a(_ldexp.o)
 .debug_info    0x0003beb5      0x104 /Applications/microchip/xc32/v2.10/bin/bin/../../lib/gcc/pic32mx/4.8.3/../../../../pic32mx/lib/libe.a(_ldexpf.o)
 .debug_info    0x0003bfb9      0x37d /Applications/microchip/xc32/v2.10/bin/bin/../../lib/gcc/pic32mx/4.8.3/libgcc.a(_lshrdi3.o)
 .debug_info    0x0003c336      0x380 /Applications/microchip/xc32/v2.10/bin/bin/../../lib/gcc/pic32mx/4.8.3/libgcc.a(_ashldi3.o)
 .debug_info    0x0003c6b6      0x7f0 /Applications/microchip/xc32/v2.10/bin/bin/../../lib/gcc/pic32mx/4.8.3/libgcc.a(_divdi3.o)
 .debug_info    0x0003cea6      0x7bc /Applications/microchip/xc32/v2.10/bin/bin/../../lib/gcc/pic32mx/4.8.3/libgcc.a(_udivdi3.o)
 .debug_info    0x0003d662      0x15c /Applications/microchip/xc32/v2.10/bin/bin/../../lib/gcc/pic32mx/4.8.3/../../../../pic32mx/lib/libpic32.a(sbrk.o)
 .debug_info    0x0003d7be       0xe9 /Applications/microchip/xc32/v2.10/bin/bin/../../lib/gcc/pic32mx/4.8.3/../../../../pic32mx/lib/libpic32.a(_exit.o)
 .debug_info    0x0003d8a7       0xeb /Applications/microchip/xc32/v2.10/bin/bin/../../lib/gcc/pic32mx/4.8.3/../../../../pic32mx/lib/libpic32.a(isatty.o)
 .debug_info    0x0003d992       0xf2 /Applications/microchip/xc32/v2.10/bin/bin/../../lib/gcc/pic32mx/4.8.3/../../../../pic32mx/lib/libpic32.a(_mon_getc.o)
 .debug_info    0x0003da84       0xf4 /Applications/microchip/xc32/v2.10/bin/bin/../../lib/gcc/pic32mx/4.8.3/../../../../pic32mx/lib/libpic32.a(_mon_write.o)
 .debug_info    0x0003db78       0xf2 /Applications/microchip/xc32/v2.10/bin/bin/../../lib/gcc/pic32mx/4.8.3/../../../../pic32mx/lib/libpic32.a(_mon_putc.o)

.debug_abbrev   0x00000000     0x4d4b
 *(.debug_abbrev)
 .debug_abbrev  0x00000000      0x1da build/default/production/src/basic/tokenizer.o
 .debug_abbrev  0x000001da      0x399 build/default/production/src/basic/ubasic.o
 .debug_abbrev  0x00000573      0x1da build/default/production/src/basic/tokenizer_fast.o
 .debug_abbrev  0x0000074d      0x203 build/default/production/src/basic/tokenizer_slow.o
 .debug_abbrev  0x00000950      0x1fc build/default/production/src/Z80/sim2.o
 .debug_abbrev  0x00000b4c      0x247 build/default/production/src/Z80/sim4.o
 .debug_abbrev  0x00000d93      0x249 build/default/production/src/Z80/sim1.o
 .debug_abbrev  0x00000fdc      0x1fc build/default/production/src/Z80/sim3.o
 .debug_abbrev  0x000011d8      0x275 build/default/production/src/Z80/iosim.o
 .debug_abbrev  0x0000144d      0x1fc build/default/production/src/Z80/sim5.o
 .debug_abbrev  0x00001649      0x1e8 build/default/production/src/Z80/sim7.o
 .debug_abbrev  0x00001831      0x191 build/default/production/src/Z80/simfun.o
 .debug_abbrev  0x000019c2      0x2ee build/default/production/src/Z80/hwz.o
 .debug_abbrev  0x00001cb0      0x13b build/default/production/src/Z80/simglb.o
 .debug_abbrev  0x00001deb      0x1e8 build/default/production/src/Z80/sim6.o
 .debug_abbrev  0x00001fd3      0x431 build/default/production/src/badge.o
 .debug_abbrev  0x00002404      0x1d2 build/default/production/src/box_game.o
 .debug_abbrev  0x000025d6      0x260 build/default/production/src/disp.o
 .debug_abbrev  0x00002836      0x4be build/default/production/src/hw.o
 .debug_abbrev  0x00002cf4       0x68 build/default/production/src/images.o
 .debug_abbrev  0x00002d5c      0x125 build/default/production/src/main.o
 .debug_abbrev  0x00002e81      0x21e build/default/production/src/post.o
 .debug_abbrev  0x0000309f      0x2d9 build/default/production/src/snake.o
 .debug_abbrev  0x00003378      0x18a build/default/production/src/splash.o
 .debug_abbrev  0x00003502      0x13a build/default/production/src/tetrapuzz.o
 .debug_abbrev  0x0000363c       0xe9 build/default/production/src/tune_player.o
 .debug_abbrev  0x00003725      0x3d0 build/default/production/src/vt100.o
 .debug_abbrev  0x00003af5      0x181 build/default/production/src/nyancat.o
 .debug_abbrev  0x00003c76      0x231 build/default/production/src/user_program.o
 .debug_abbrev  0x00003ea7      0x21e build/default/production/src/puzzle.o
 .debug_abbrev  0x000040c5      0x396 build/default/production/src/qrcodegen.o
 .debug_abbrev  0x0000445b       0x28 /Applications/microchip/xc32/v2.10/bin/bin/../../lib/gcc/pic32mx/4.8.3/../../../../pic32mx/lib/libmchp_peripheral_32MX370F512H.a(pcache.o)
 .debug_abbrev  0x00004483       0x28 /Applications/microchip/xc32/v2.10/bin/bin/../../lib/gcc/pic32mx/4.8.3/../../../../pic32mx/lib/libmchp_peripheral_32MX370F512H.a(int_disable_interrupts_lib.o)
 .debug_abbrev  0x000044ab       0x28 /Applications/microchip/xc32/v2.10/bin/bin/../../lib/gcc/pic32mx/4.8.3/../../../../pic32mx/lib/libmchp_peripheral_32MX370F512H.a(int_restore_interrupts_lib.o)
 .debug_abbrev  0x000044d3       0x28 /Applications/microchip/xc32/v2.10/bin/bin/../../lib/gcc/pic32mx/4.8.3/../../../../pic32mx/lib/libmchp_peripheral_32MX370F512H.a(int_enable_mv_int_lib.o)
 .debug_abbrev  0x000044fb       0x28 /Applications/microchip/xc32/v2.10/bin/bin/../../lib/gcc/pic32mx/4.8.3/../../../../pic32mx/lib/libmchp_peripheral_32MX370F512H.a(int_enable_interrupts_lib.o)
 .debug_abbrev  0x00004523      0x147 /Applications/microchip/xc32/v2.10/bin/bin/../../lib/gcc/pic32mx/4.8.3/libgcc.a(_umoddi3.o)
 .debug_abbrev  0x0000466a       0x14 /Applications/microchip/xc32/v2.10/bin/bin/../../lib/gcc/pic32mx/4.8.3/../../../../pic32mx/lib/libpic32.a(setjmp.o)
 .debug_abbrev  0x0000467e       0x28 /Applications/microchip/xc32/v2.10/bin/bin/../../lib/gcc/pic32mx/4.8.3/../../../../pic32mx/lib/libpic32.a(default-bootstrap-exception-handler.o)
 .debug_abbrev  0x000046a6       0x28 /Applications/microchip/xc32/v2.10/bin/bin/../../lib/gcc/pic32mx/4.8.3/../../../../pic32mx/lib/libpic32.a(default-on-reset.o)
 .debug_abbrev  0x000046ce       0x28 /Applications/microchip/xc32/v2.10/bin/bin/../../lib/gcc/pic32mx/4.8.3/../../../../pic32mx/lib/libpic32.a(default-on-bootstrap.o)
 .debug_abbrev  0x000046f6       0x28 /Applications/microchip/xc32/v2.10/bin/bin/../../lib/gcc/pic32mx/4.8.3/../../../../pic32mx/lib/libpic32.a(default-general-exception-handler.o)
 .debug_abbrev  0x0000471e       0x28 /Applications/microchip/xc32/v2.10/bin/bin/../../lib/gcc/pic32mx/4.8.3/../../../../pic32mx/lib/libpic32.a(defaultinterrupt.o)
 .debug_abbrev  0x00004746       0x35 /Applications/microchip/xc32/v2.10/bin/bin/../../lib/gcc/pic32mx/4.8.3/../../../../pic32mx/lib/libm.a(__strtod.o)
 .debug_abbrev  0x0000477b       0x35 /Applications/microchip/xc32/v2.10/bin/bin/../../lib/gcc/pic32mx/4.8.3/../../../../pic32mx/lib/libm.a(__strtof.o)
 .debug_abbrev  0x000047b0       0x35 /Applications/microchip/xc32/v2.10/bin/bin/../../lib/gcc/pic32mx/4.8.3/../../../../pic32mx/lib/libe.a(_ldexp.o)
 .debug_abbrev  0x000047e5       0x35 /Applications/microchip/xc32/v2.10/bin/bin/../../lib/gcc/pic32mx/4.8.3/../../../../pic32mx/lib/libe.a(_ldexpf.o)
 .debug_abbrev  0x0000481a       0xd7 /Applications/microchip/xc32/v2.10/bin/bin/../../lib/gcc/pic32mx/4.8.3/libgcc.a(_lshrdi3.o)
 .debug_abbrev  0x000048f1       0xc8 /Applications/microchip/xc32/v2.10/bin/bin/../../lib/gcc/pic32mx/4.8.3/libgcc.a(_ashldi3.o)
 .debug_abbrev  0x000049b9      0x13e /Applications/microchip/xc32/v2.10/bin/bin/../../lib/gcc/pic32mx/4.8.3/libgcc.a(_divdi3.o)
 .debug_abbrev  0x00004af7      0x138 /Applications/microchip/xc32/v2.10/bin/bin/../../lib/gcc/pic32mx/4.8.3/libgcc.a(_udivdi3.o)
 .debug_abbrev  0x00004c2f       0x54 /Applications/microchip/xc32/v2.10/bin/bin/../../lib/gcc/pic32mx/4.8.3/../../../../pic32mx/lib/libpic32.a(sbrk.o)
 .debug_abbrev  0x00004c83       0x28 /Applications/microchip/xc32/v2.10/bin/bin/../../lib/gcc/pic32mx/4.8.3/../../../../pic32mx/lib/libpic32.a(_exit.o)
 .debug_abbrev  0x00004cab       0x28 /Applications/microchip/xc32/v2.10/bin/bin/../../lib/gcc/pic32mx/4.8.3/../../../../pic32mx/lib/libpic32.a(isatty.o)
 .debug_abbrev  0x00004cd3       0x28 /Applications/microchip/xc32/v2.10/bin/bin/../../lib/gcc/pic32mx/4.8.3/../../../../pic32mx/lib/libpic32.a(_mon_getc.o)
 .debug_abbrev  0x00004cfb       0x28 /Applications/microchip/xc32/v2.10/bin/bin/../../lib/gcc/pic32mx/4.8.3/../../../../pic32mx/lib/libpic32.a(_mon_write.o)
 .debug_abbrev  0x00004d23       0x28 /Applications/microchip/xc32/v2.10/bin/bin/../../lib/gcc/pic32mx/4.8.3/../../../../pic32mx/lib/libpic32.a(_mon_putc.o)

.debug_line     0x00000000     0x8f8d
 *(.debug_line)
 .debug_line    0x00000000      0x453 build/default/production/src/basic/tokenizer.o
 .debug_line    0x00000453      0x505 build/default/production/src/basic/ubasic.o
 .debug_line    0x00000958      0x453 build/default/production/src/basic/tokenizer_fast.o
 .debug_line    0x00000dab      0x195 build/default/production/src/basic/tokenizer_slow.o
 .debug_line    0x00000f40      0x8f9 build/default/production/src/Z80/sim2.o
 .debug_line    0x00001839      0x547 build/default/production/src/Z80/sim4.o
 .debug_line    0x00001d80      0xba4 build/default/production/src/Z80/sim1.o
 .debug_line    0x00002924      0x346 build/default/production/src/Z80/sim3.o
 .debug_line    0x00002c6a      0x282 build/default/production/src/Z80/iosim.o
 .debug_line    0x00002eec      0x346 build/default/production/src/Z80/sim5.o
 .debug_line    0x00003232      0x2db build/default/production/src/Z80/sim7.o
 .debug_line    0x0000350d      0x1df build/default/production/src/Z80/simfun.o
 .debug_line    0x000036ec      0x35b build/default/production/src/Z80/hwz.o
 .debug_line    0x00003a47      0x1b1 build/default/production/src/Z80/simglb.o
 .debug_line    0x00003bf8      0x2db build/default/production/src/Z80/sim6.o
 .debug_line    0x00003ed3      0x7d8 build/default/production/src/badge.o
 .debug_line    0x000046ab      0x313 build/default/production/src/box_game.o
 .debug_line    0x000049be      0xae7 build/default/production/src/disp.o
 .debug_line    0x000054a5      0x50b build/default/production/src/hw.o
 .debug_line    0x000059b0       0x73 build/default/production/src/images.o
 .debug_line    0x00005a23      0x164 build/default/production/src/main.o
 .debug_line    0x00005b87      0x36f build/default/production/src/post.o
 .debug_line    0x00005ef6      0x2a8 build/default/production/src/snake.o
 .debug_line    0x0000619e      0x295 build/default/production/src/splash.o
 .debug_line    0x00006433      0x11c build/default/production/src/tetrapuzz.o
 .debug_line    0x0000654f       0xe0 build/default/production/src/tune_player.o
 .debug_line    0x0000662f      0x4f6 build/default/production/src/vt100.o
 .debug_line    0x00006b25      0x1c5 build/default/production/src/nyancat.o
 .debug_line    0x00006cea      0x2db build/default/production/src/user_program.o
 .debug_line    0x00006fc5      0x2a1 build/default/production/src/puzzle.o
 .debug_line    0x00007266      0x9d1 build/default/production/src/qrcodegen.o
 .debug_line    0x00007c37       0x5f /Applications/microchip/xc32/v2.10/bin/bin/../../lib/gcc/pic32mx/4.8.3/../../../../pic32mx/lib/libmchp_peripheral_32MX370F512H.a(pcache.o)
 .debug_line    0x00007c96       0x70 /Applications/microchip/xc32/v2.10/bin/bin/../../lib/gcc/pic32mx/4.8.3/../../../../pic32mx/lib/libmchp_peripheral_32MX370F512H.a(int_disable_interrupts_lib.o)
 .debug_line    0x00007d06       0x70 /Applications/microchip/xc32/v2.10/bin/bin/../../lib/gcc/pic32mx/4.8.3/../../../../pic32mx/lib/libmchp_peripheral_32MX370F512H.a(int_restore_interrupts_lib.o)
 .debug_line    0x00007d76       0x6b /Applications/microchip/xc32/v2.10/bin/bin/../../lib/gcc/pic32mx/4.8.3/../../../../pic32mx/lib/libmchp_peripheral_32MX370F512H.a(int_enable_mv_int_lib.o)
 .debug_line    0x00007de1       0x6f /Applications/microchip/xc32/v2.10/bin/bin/../../lib/gcc/pic32mx/4.8.3/../../../../pic32mx/lib/libmchp_peripheral_32MX370F512H.a(int_enable_interrupts_lib.o)
 .debug_line    0x00007e50      0x139 /Applications/microchip/xc32/v2.10/bin/bin/../../lib/gcc/pic32mx/4.8.3/libgcc.a(_umoddi3.o)
 .debug_line    0x00007f89       0xd5 /Applications/microchip/xc32/v2.10/bin/bin/../../lib/gcc/pic32mx/4.8.3/../../../../pic32mx/lib/libpic32.a(setjmp.o)
 .debug_line    0x0000805e       0xd1 /Applications/microchip/xc32/v2.10/bin/bin/../../lib/gcc/pic32mx/4.8.3/../../../../pic32mx/lib/libpic32.a(default-bootstrap-exception-handler.o)
 .debug_line    0x0000812f       0xbe /Applications/microchip/xc32/v2.10/bin/bin/../../lib/gcc/pic32mx/4.8.3/../../../../pic32mx/lib/libpic32.a(default-on-reset.o)
 .debug_line    0x000081ed       0xc2 /Applications/microchip/xc32/v2.10/bin/bin/../../lib/gcc/pic32mx/4.8.3/../../../../pic32mx/lib/libpic32.a(default-on-bootstrap.o)
 .debug_line    0x000082af       0xcf /Applications/microchip/xc32/v2.10/bin/bin/../../lib/gcc/pic32mx/4.8.3/../../../../pic32mx/lib/libpic32.a(default-general-exception-handler.o)
 .debug_line    0x0000837e       0xd0 /Applications/microchip/xc32/v2.10/bin/bin/../../lib/gcc/pic32mx/4.8.3/../../../../pic32mx/lib/libpic32.a(defaultinterrupt.o)
 .debug_line    0x0000844e       0xb3 /Applications/microchip/xc32/v2.10/bin/bin/../../lib/gcc/pic32mx/4.8.3/../../../../pic32mx/lib/libm.a(__strtod.o)
 .debug_line    0x00008501       0xb3 /Applications/microchip/xc32/v2.10/bin/bin/../../lib/gcc/pic32mx/4.8.3/../../../../pic32mx/lib/libm.a(__strtof.o)
 .debug_line    0x000085b4       0xcd /Applications/microchip/xc32/v2.10/bin/bin/../../lib/gcc/pic32mx/4.8.3/../../../../pic32mx/lib/libe.a(_ldexp.o)
 .debug_line    0x00008681       0xcd /Applications/microchip/xc32/v2.10/bin/bin/../../lib/gcc/pic32mx/4.8.3/../../../../pic32mx/lib/libe.a(_ldexpf.o)
 .debug_line    0x0000874e       0xd5 /Applications/microchip/xc32/v2.10/bin/bin/../../lib/gcc/pic32mx/4.8.3/libgcc.a(_lshrdi3.o)
 .debug_line    0x00008823       0xd5 /Applications/microchip/xc32/v2.10/bin/bin/../../lib/gcc/pic32mx/4.8.3/libgcc.a(_ashldi3.o)
 .debug_line    0x000088f8      0x12f /Applications/microchip/xc32/v2.10/bin/bin/../../lib/gcc/pic32mx/4.8.3/libgcc.a(_divdi3.o)
 .debug_line    0x00008a27      0x127 /Applications/microchip/xc32/v2.10/bin/bin/../../lib/gcc/pic32mx/4.8.3/libgcc.a(_udivdi3.o)
 .debug_line    0x00008b4e       0xb2 /Applications/microchip/xc32/v2.10/bin/bin/../../lib/gcc/pic32mx/4.8.3/../../../../pic32mx/lib/libpic32.a(sbrk.o)
 .debug_line    0x00008c00       0xb3 /Applications/microchip/xc32/v2.10/bin/bin/../../lib/gcc/pic32mx/4.8.3/../../../../pic32mx/lib/libpic32.a(_exit.o)
 .debug_line    0x00008cb3       0xb4 /Applications/microchip/xc32/v2.10/bin/bin/../../lib/gcc/pic32mx/4.8.3/../../../../pic32mx/lib/libpic32.a(isatty.o)
 .debug_line    0x00008d67       0xb7 /Applications/microchip/xc32/v2.10/bin/bin/../../lib/gcc/pic32mx/4.8.3/../../../../pic32mx/lib/libpic32.a(_mon_getc.o)
 .debug_line    0x00008e1e       0xb8 /Applications/microchip/xc32/v2.10/bin/bin/../../lib/gcc/pic32mx/4.8.3/../../../../pic32mx/lib/libpic32.a(_mon_write.o)
 .debug_line    0x00008ed6        0x0 /Applications/microchip/xc32/v2.10/bin/bin/../../lib/gcc/pic32mx/4.8.3/../../../../pic32mx/lib/libpic32.a(xc32_uart.o)
 .debug_line    0x00008ed6       0xb7 /Applications/microchip/xc32/v2.10/bin/bin/../../lib/gcc/pic32mx/4.8.3/../../../../pic32mx/lib/libpic32.a(_mon_putc.o)

.debug_frame    0x00000000     0x5420
 *(.debug_frame)
 .debug_frame   0x00000000       0xdc build/default/production/src/basic/tokenizer.o
 .debug_frame   0x000000dc      0x188 build/default/production/src/basic/ubasic.o
 .debug_frame   0x00000264       0xdc build/default/production/src/basic/tokenizer_fast.o
 .debug_frame   0x00000340       0xd8 build/default/production/src/basic/tokenizer_slow.o
 .debug_frame   0x00000418      0xfb8 build/default/production/src/Z80/sim2.o
 .debug_frame   0x000013d0      0x468 build/default/production/src/Z80/sim4.o
 .debug_frame   0x00001838      0xffc build/default/production/src/Z80/sim1.o
 .debug_frame   0x00002834      0x2a8 build/default/production/src/Z80/sim3.o
 .debug_frame   0x00002adc       0x64 build/default/production/src/Z80/iosim.o
 .debug_frame   0x00002b40      0x2a8 build/default/production/src/Z80/sim5.o
 .debug_frame   0x00002de8      0x228 build/default/production/src/Z80/sim7.o
 .debug_frame   0x00003010       0x3c build/default/production/src/Z80/simfun.o
 .debug_frame   0x0000304c      0x218 build/default/production/src/Z80/hwz.o
 .debug_frame   0x00003264      0x228 build/default/production/src/Z80/sim6.o
 .debug_frame   0x0000348c      0x594 build/default/production/src/badge.o
 .debug_frame   0x00003a20      0x308 build/default/production/src/box_game.o
 .debug_frame   0x00003d28      0x150 build/default/production/src/disp.o
 .debug_frame   0x00003e78      0x258 build/default/production/src/hw.o
 .debug_frame   0x000040d0       0x28 build/default/production/src/main.o
 .debug_frame   0x000040f8       0x44 build/default/production/src/post.o
 .debug_frame   0x0000413c      0x17c build/default/production/src/snake.o
 .debug_frame   0x000042b8      0x144 build/default/production/src/splash.o
 .debug_frame   0x000043fc       0x80 build/default/production/src/tetrapuzz.o
 .debug_frame   0x0000447c       0x50 build/default/production/src/tune_player.o
 .debug_frame   0x000044cc      0x464 build/default/production/src/vt100.o
 .debug_frame   0x00004930       0x5c build/default/production/src/nyancat.o
 .debug_frame   0x0000498c      0x130 build/default/production/src/user_program.o
 .debug_frame   0x00004abc      0x204 build/default/production/src/puzzle.o
 .debug_frame   0x00004cc0      0x354 build/default/production/src/qrcodegen.o
 .debug_frame   0x00005014       0x30 /Applications/microchip/xc32/v2.10/bin/bin/../../lib/gcc/pic32mx/4.8.3/../../../../pic32mx/lib/libmchp_peripheral_32MX370F512H.a(pcache.o)
 .debug_frame   0x00005044       0x20 /Applications/microchip/xc32/v2.10/bin/bin/../../lib/gcc/pic32mx/4.8.3/../../../../pic32mx/lib/libmchp_peripheral_32MX370F512H.a(int_disable_interrupts_lib.o)
 .debug_frame   0x00005064       0x20 /Applications/microchip/xc32/v2.10/bin/bin/../../lib/gcc/pic32mx/4.8.3/../../../../pic32mx/lib/libmchp_peripheral_32MX370F512H.a(int_restore_interrupts_lib.o)
 .debug_frame   0x00005084       0x28 /Applications/microchip/xc32/v2.10/bin/bin/../../lib/gcc/pic32mx/4.8.3/../../../../pic32mx/lib/libmchp_peripheral_32MX370F512H.a(int_enable_mv_int_lib.o)
 .debug_frame   0x000050ac       0x20 /Applications/microchip/xc32/v2.10/bin/bin/../../lib/gcc/pic32mx/4.8.3/../../../../pic32mx/lib/libmchp_peripheral_32MX370F512H.a(int_enable_interrupts_lib.o)
 .debug_frame   0x000050cc       0x20 /Applications/microchip/xc32/v2.10/bin/bin/../../lib/gcc/pic32mx/4.8.3/libgcc.a(_umoddi3.o)
 .debug_frame   0x000050ec       0x2c /Applications/microchip/xc32/v2.10/bin/bin/../../lib/gcc/pic32mx/4.8.3/../../../../pic32mx/lib/libpic32.a(default-bootstrap-exception-handler.o)
 .debug_frame   0x00005118       0x20 /Applications/microchip/xc32/v2.10/bin/bin/../../lib/gcc/pic32mx/4.8.3/../../../../pic32mx/lib/libpic32.a(default-on-reset.o)
 .debug_frame   0x00005138       0x20 /Applications/microchip/xc32/v2.10/bin/bin/../../lib/gcc/pic32mx/4.8.3/../../../../pic32mx/lib/libpic32.a(default-on-bootstrap.o)
 .debug_frame   0x00005158       0x2c /Applications/microchip/xc32/v2.10/bin/bin/../../lib/gcc/pic32mx/4.8.3/../../../../pic32mx/lib/libpic32.a(default-general-exception-handler.o)
 .debug_frame   0x00005184       0x20 /Applications/microchip/xc32/v2.10/bin/bin/../../lib/gcc/pic32mx/4.8.3/../../../../pic32mx/lib/libpic32.a(defaultinterrupt.o)
 .debug_frame   0x000051a4       0x38 /Applications/microchip/xc32/v2.10/bin/bin/../../lib/gcc/pic32mx/4.8.3/../../../../pic32mx/lib/libm.a(__strtod.o)
 .debug_frame   0x000051dc       0x38 /Applications/microchip/xc32/v2.10/bin/bin/../../lib/gcc/pic32mx/4.8.3/../../../../pic32mx/lib/libm.a(__strtof.o)
 .debug_frame   0x00005214       0x2c /Applications/microchip/xc32/v2.10/bin/bin/../../lib/gcc/pic32mx/4.8.3/../../../../pic32mx/lib/libe.a(_ldexp.o)
 .debug_frame   0x00005240       0x20 /Applications/microchip/xc32/v2.10/bin/bin/../../lib/gcc/pic32mx/4.8.3/../../../../pic32mx/lib/libe.a(_ldexpf.o)
 .debug_frame   0x00005260       0x20 /Applications/microchip/xc32/v2.10/bin/bin/../../lib/gcc/pic32mx/4.8.3/libgcc.a(_lshrdi3.o)
 .debug_frame   0x00005280       0x20 /Applications/microchip/xc32/v2.10/bin/bin/../../lib/gcc/pic32mx/4.8.3/libgcc.a(_ashldi3.o)
 .debug_frame   0x000052a0       0x20 /Applications/microchip/xc32/v2.10/bin/bin/../../lib/gcc/pic32mx/4.8.3/libgcc.a(_divdi3.o)
 .debug_frame   0x000052c0       0x20 /Applications/microchip/xc32/v2.10/bin/bin/../../lib/gcc/pic32mx/4.8.3/libgcc.a(_udivdi3.o)
 .debug_frame   0x000052e0       0x84 /Applications/microchip/xc32/v2.10/bin/bin/../../lib/gcc/pic32mx/4.8.3/../../../../pic32mx/lib/libpic32.a(sbrk.o)
 .debug_frame   0x00005364       0x20 /Applications/microchip/xc32/v2.10/bin/bin/../../lib/gcc/pic32mx/4.8.3/../../../../pic32mx/lib/libpic32.a(_exit.o)
 .debug_frame   0x00005384       0x20 /Applications/microchip/xc32/v2.10/bin/bin/../../lib/gcc/pic32mx/4.8.3/../../../../pic32mx/lib/libpic32.a(isatty.o)
 .debug_frame   0x000053a4       0x28 /Applications/microchip/xc32/v2.10/bin/bin/../../lib/gcc/pic32mx/4.8.3/../../../../pic32mx/lib/libpic32.a(_mon_getc.o)
 .debug_frame   0x000053cc       0x2c /Applications/microchip/xc32/v2.10/bin/bin/../../lib/gcc/pic32mx/4.8.3/../../../../pic32mx/lib/libpic32.a(_mon_write.o)
 .debug_frame   0x000053f8       0x28 /Applications/microchip/xc32/v2.10/bin/bin/../../lib/gcc/pic32mx/4.8.3/../../../../pic32mx/lib/libpic32.a(_mon_putc.o)

.debug_str      0x00000000      0xe44
 *(.debug_str)
 .debug_str     0x00000000        0x0 build/default/production/src/basic/tokenizer.o
 .debug_str     0x00000000       0x15 build/default/production/src/basic/ubasic.o
 .debug_str     0x00000015        0x0 build/default/production/src/basic/tokenizer_fast.o
 .debug_str     0x00000015        0x0 build/default/production/src/basic/tokenizer_slow.o
 .debug_str     0x00000015      0x122 build/default/production/src/Z80/sim2.o
 .debug_str     0x00000137      0x133 build/default/production/src/Z80/sim4.o
 .debug_str     0x0000026a      0x2c8 build/default/production/src/Z80/sim1.o
 .debug_str     0x00000532      0x147 build/default/production/src/Z80/sim3.o
 .debug_str     0x00000679       0x10 build/default/production/src/Z80/iosim.o
 .debug_str     0x00000689      0x147 build/default/production/src/Z80/sim5.o
 .debug_str     0x000007d0      0x14e build/default/production/src/Z80/sim7.o
 .debug_str     0x0000091e        0x0 build/default/production/src/Z80/simfun.o
 .debug_str     0x0000091e       0x11 build/default/production/src/Z80/hwz.o
 .debug_str     0x0000092f        0x0 build/default/production/src/Z80/simglb.o
 .debug_str     0x0000092f      0x14e build/default/production/src/Z80/sim6.o
 .debug_str     0x00000a7d       0x40 build/default/production/src/badge.o
 .debug_str     0x00000abd       0x93 build/default/production/src/box_game.o
 .debug_str     0x00000b50        0xb build/default/production/src/disp.o
 .debug_str     0x00000b5b       0x7a build/default/production/src/hw.o
 .debug_str     0x00000bd5        0x0 build/default/production/src/images.o
 .debug_str     0x00000bd5       0x25 build/default/production/src/main.o
 .debug_str     0x00000bfa        0x0 build/default/production/src/post.o
 .debug_str     0x00000bfa       0x19 build/default/production/src/snake.o
 .debug_str     0x00000c13       0x63 build/default/production/src/splash.o
 .debug_str     0x00000c76        0x7 build/default/production/src/tetrapuzz.o
 .debug_str     0x00000c7d       0x11 build/default/production/src/tune_player.o
 .debug_str     0x00000c8e       0x20 build/default/production/src/vt100.o
 .debug_str     0x00000cae       0x23 build/default/production/src/nyancat.o
 .debug_str     0x00000cd1        0x0 build/default/production/src/user_program.o
 .debug_str     0x00000cd1       0x29 build/default/production/src/puzzle.o
 .debug_str     0x00000cfa      0x14a build/default/production/src/qrcodegen.o
 .debug_str     0x00000e44        0x0 /Applications/microchip/xc32/v2.10/bin/bin/../../lib/gcc/pic32mx/4.8.3/../../../../pic32mx/lib/libmchp_peripheral_32MX370F512H.a(pcache.o)
 .debug_str     0x00000e44        0x0 /Applications/microchip/xc32/v2.10/bin/bin/../../lib/gcc/pic32mx/4.8.3/../../../../pic32mx/lib/libmchp_peripheral_32MX370F512H.a(int_disable_interrupts_lib.o)
 .debug_str     0x00000e44        0x0 /Applications/microchip/xc32/v2.10/bin/bin/../../lib/gcc/pic32mx/4.8.3/../../../../pic32mx/lib/libmchp_peripheral_32MX370F512H.a(int_restore_interrupts_lib.o)
 .debug_str     0x00000e44        0x0 /Applications/microchip/xc32/v2.10/bin/bin/../../lib/gcc/pic32mx/4.8.3/../../../../pic32mx/lib/libmchp_peripheral_32MX370F512H.a(int_enable_mv_int_lib.o)
 .debug_str     0x00000e44        0x0 /Applications/microchip/xc32/v2.10/bin/bin/../../lib/gcc/pic32mx/4.8.3/../../../../pic32mx/lib/libmchp_peripheral_32MX370F512H.a(int_enable_interrupts_lib.o)
 .debug_str     0x00000e44        0x0 /Applications/microchip/xc32/v2.10/bin/bin/../../lib/gcc/pic32mx/4.8.3/libgcc.a(_umoddi3.o)
 .debug_str     0x00000e44        0x0 /Applications/microchip/xc32/v2.10/bin/bin/../../lib/gcc/pic32mx/4.8.3/../../../../pic32mx/lib/libpic32.a(default-bootstrap-exception-handler.o)
 .debug_str     0x00000e44        0x0 /Applications/microchip/xc32/v2.10/bin/bin/../../lib/gcc/pic32mx/4.8.3/../../../../pic32mx/lib/libpic32.a(default-on-reset.o)
 .debug_str     0x00000e44        0x0 /Applications/microchip/xc32/v2.10/bin/bin/../../lib/gcc/pic32mx/4.8.3/../../../../pic32mx/lib/libpic32.a(default-on-bootstrap.o)
 .debug_str     0x00000e44        0x0 /Applications/microchip/xc32/v2.10/bin/bin/../../lib/gcc/pic32mx/4.8.3/../../../../pic32mx/lib/libpic32.a(default-general-exception-handler.o)
 .debug_str     0x00000e44        0x0 /Applications/microchip/xc32/v2.10/bin/bin/../../lib/gcc/pic32mx/4.8.3/../../../../pic32mx/lib/libpic32.a(defaultinterrupt.o)
 .debug_str     0x00000e44        0x0 /Applications/microchip/xc32/v2.10/bin/bin/../../lib/gcc/pic32mx/4.8.3/../../../../pic32mx/lib/libm.a(__strtod.o)
 .debug_str     0x00000e44        0x0 /Applications/microchip/xc32/v2.10/bin/bin/../../lib/gcc/pic32mx/4.8.3/../../../../pic32mx/lib/libm.a(__strtof.o)
 .debug_str     0x00000e44        0x0 /Applications/microchip/xc32/v2.10/bin/bin/../../lib/gcc/pic32mx/4.8.3/../../../../pic32mx/lib/libe.a(_ldexp.o)
 .debug_str     0x00000e44        0x0 /Applications/microchip/xc32/v2.10/bin/bin/../../lib/gcc/pic32mx/4.8.3/../../../../pic32mx/lib/libe.a(_ldexpf.o)
 .debug_str     0x00000e44        0x0 /Applications/microchip/xc32/v2.10/bin/bin/../../lib/gcc/pic32mx/4.8.3/libgcc.a(_lshrdi3.o)
 .debug_str     0x00000e44        0x0 /Applications/microchip/xc32/v2.10/bin/bin/../../lib/gcc/pic32mx/4.8.3/libgcc.a(_ashldi3.o)
 .debug_str     0x00000e44        0x0 /Applications/microchip/xc32/v2.10/bin/bin/../../lib/gcc/pic32mx/4.8.3/libgcc.a(_divdi3.o)
 .debug_str     0x00000e44        0x0 /Applications/microchip/xc32/v2.10/bin/bin/../../lib/gcc/pic32mx/4.8.3/libgcc.a(_udivdi3.o)
 .debug_str     0x00000e44        0x0 /Applications/microchip/xc32/v2.10/bin/bin/../../lib/gcc/pic32mx/4.8.3/../../../../pic32mx/lib/libpic32.a(sbrk.o)
 .debug_str     0x00000e44        0x0 /Applications/microchip/xc32/v2.10/bin/bin/../../lib/gcc/pic32mx/4.8.3/../../../../pic32mx/lib/libpic32.a(_exit.o)
 .debug_str     0x00000e44        0x0 /Applications/microchip/xc32/v2.10/bin/bin/../../lib/gcc/pic32mx/4.8.3/../../../../pic32mx/lib/libpic32.a(isatty.o)
 .debug_str     0x00000e44        0x0 /Applications/microchip/xc32/v2.10/bin/bin/../../lib/gcc/pic32mx/4.8.3/../../../../pic32mx/lib/libpic32.a(_mon_getc.o)
 .debug_str     0x00000e44        0x0 /Applications/microchip/xc32/v2.10/bin/bin/../../lib/gcc/pic32mx/4.8.3/../../../../pic32mx/lib/libpic32.a(_mon_write.o)
 .debug_str     0x00000e44        0x0 /Applications/microchip/xc32/v2.10/bin/bin/../../lib/gcc/pic32mx/4.8.3/../../../../pic32mx/lib/libpic32.a(xc32_uart.o)
 .debug_str     0x00000e44        0x0 /Applications/microchip/xc32/v2.10/bin/bin/../../lib/gcc/pic32mx/4.8.3/../../../../pic32mx/lib/libpic32.a(_mon_putc.o)

.debug_loc      0x00000000    0x14435
 *(.debug_loc)
 .debug_loc     0x00000000     0x11a1 build/default/production/src/basic/tokenizer.o
 .debug_loc     0x000011a1      0x884 build/default/production/src/basic/ubasic.o
 .debug_loc     0x00001a25     0x11a1 build/default/production/src/basic/tokenizer_fast.o
 .debug_loc     0x00002bc6      0x185 build/default/production/src/basic/tokenizer_slow.o
 .debug_loc     0x00002d4b      0x6eb build/default/production/src/Z80/sim2.o
 .debug_loc     0x00003436      0xabb build/default/production/src/Z80/sim4.o
 .debug_loc     0x00003ef1      0xaf4 build/default/production/src/Z80/sim1.o
 .debug_loc     0x000049e5      0x15a build/default/production/src/Z80/sim3.o
 .debug_loc     0x00004b3f       0xa4 build/default/production/src/Z80/iosim.o
 .debug_loc     0x00004be3      0x15a build/default/production/src/Z80/sim5.o
 .debug_loc     0x00004d3d      0x5e5 build/default/production/src/Z80/sim7.o
 .debug_loc     0x00005322       0x5e build/default/production/src/Z80/simfun.o
 .debug_loc     0x00005380      0x7a3 build/default/production/src/Z80/hwz.o
 .debug_loc     0x00005b23      0x5e5 build/default/production/src/Z80/sim6.o
 .debug_loc     0x00006108      0xf4e build/default/production/src/badge.o
 .debug_loc     0x00007056      0xc69 build/default/production/src/box_game.o
 .debug_loc     0x00007cbf     0x28f5 build/default/production/src/disp.o
 .debug_loc     0x0000a5b4      0x4f0 build/default/production/src/hw.o
 .debug_loc     0x0000aaa4      0x156 build/default/production/src/post.o
 .debug_loc     0x0000abfa      0x7e6 build/default/production/src/snake.o
 .debug_loc     0x0000b3e0      0x68d build/default/production/src/splash.o
 .debug_loc     0x0000ba6d       0x32 build/default/production/src/tetrapuzz.o
 .debug_loc     0x0000ba9f       0xcf build/default/production/src/tune_player.o
 .debug_loc     0x0000bb6e      0xd64 build/default/production/src/vt100.o
 .debug_loc     0x0000c8d2      0x94b build/default/production/src/nyancat.o
 .debug_loc     0x0000d21d      0x3cd build/default/production/src/user_program.o
 .debug_loc     0x0000d5ea      0xafc build/default/production/src/puzzle.o
 .debug_loc     0x0000e0e6     0x4205 build/default/production/src/qrcodegen.o
 .debug_loc     0x000122eb      0xa3d /Applications/microchip/xc32/v2.10/bin/bin/../../lib/gcc/pic32mx/4.8.3/libgcc.a(_umoddi3.o)
 .debug_loc     0x00012d28       0x2c /Applications/microchip/xc32/v2.10/bin/bin/../../lib/gcc/pic32mx/4.8.3/../../../../pic32mx/lib/libpic32.a(default-bootstrap-exception-handler.o)
 .debug_loc     0x00012d54       0x2c /Applications/microchip/xc32/v2.10/bin/bin/../../lib/gcc/pic32mx/4.8.3/../../../../pic32mx/lib/libpic32.a(default-general-exception-handler.o)
 .debug_loc     0x00012d80       0x20 /Applications/microchip/xc32/v2.10/bin/bin/../../lib/gcc/pic32mx/4.8.3/../../../../pic32mx/lib/libm.a(__strtod.o)
 .debug_loc     0x00012da0       0x20 /Applications/microchip/xc32/v2.10/bin/bin/../../lib/gcc/pic32mx/4.8.3/../../../../pic32mx/lib/libm.a(__strtof.o)
 .debug_loc     0x00012dc0       0x20 /Applications/microchip/xc32/v2.10/bin/bin/../../lib/gcc/pic32mx/4.8.3/../../../../pic32mx/lib/libe.a(_ldexp.o)
 .debug_loc     0x00012de0       0xbb /Applications/microchip/xc32/v2.10/bin/bin/../../lib/gcc/pic32mx/4.8.3/libgcc.a(_lshrdi3.o)
 .debug_loc     0x00012e9b       0x82 /Applications/microchip/xc32/v2.10/bin/bin/../../lib/gcc/pic32mx/4.8.3/libgcc.a(_ashldi3.o)
 .debug_loc     0x00012f1d      0x9ee /Applications/microchip/xc32/v2.10/bin/bin/../../lib/gcc/pic32mx/4.8.3/libgcc.a(_divdi3.o)
 .debug_loc     0x0001390b      0xa6a /Applications/microchip/xc32/v2.10/bin/bin/../../lib/gcc/pic32mx/4.8.3/libgcc.a(_udivdi3.o)
 .debug_loc     0x00014375       0x60 /Applications/microchip/xc32/v2.10/bin/bin/../../lib/gcc/pic32mx/4.8.3/../../../../pic32mx/lib/libpic32.a(sbrk.o)
 .debug_loc     0x000143d5       0x20 /Applications/microchip/xc32/v2.10/bin/bin/../../lib/gcc/pic32mx/4.8.3/../../../../pic32mx/lib/libpic32.a(_mon_getc.o)
 .debug_loc     0x000143f5       0x20 /Applications/microchip/xc32/v2.10/bin/bin/../../lib/gcc/pic32mx/4.8.3/../../../../pic32mx/lib/libpic32.a(_mon_write.o)
 .debug_loc     0x00014415       0x20 /Applications/microchip/xc32/v2.10/bin/bin/../../lib/gcc/pic32mx/4.8.3/../../../../pic32mx/lib/libpic32.a(_mon_putc.o)

.debug_macinfo
 *(.debug_macinfo)

.debug_weaknames
 *(.debug_weaknames)

.debug_funcnames
 *(.debug_funcnames)

.debug_typenames
 *(.debug_typenames)

.debug_varnames
 *(.debug_varnames)

.debug_pubtypes
 *(.debug_pubtypes)

.debug_ranges   0x00000000     0x1b98
 *(.debug_ranges)
 .debug_ranges  0x00000000      0x1c0 build/default/production/src/basic/tokenizer.o
 .debug_ranges  0x000001c0       0xa8 build/default/production/src/basic/ubasic.o
 .debug_ranges  0x00000268      0x1c0 build/default/production/src/basic/tokenizer_fast.o
 .debug_ranges  0x00000428       0x18 build/default/production/src/basic/tokenizer_slow.o
 .debug_ranges  0x00000440       0x30 build/default/production/src/badge.o
 .debug_ranges  0x00000470       0xd0 build/default/production/src/box_game.o
 .debug_ranges  0x00000540      0x3e0 build/default/production/src/disp.o
 .debug_ranges  0x00000920       0x80 build/default/production/src/hw.o
 .debug_ranges  0x000009a0       0x50 build/default/production/src/snake.o
 .debug_ranges  0x000009f0       0x48 build/default/production/src/splash.o
 .debug_ranges  0x00000a38       0x48 build/default/production/src/tune_player.o
 .debug_ranges  0x00000a80       0x50 build/default/production/src/vt100.o
 .debug_ranges  0x00000ad0       0x40 build/default/production/src/user_program.o
 .debug_ranges  0x00000b10       0x18 build/default/production/src/puzzle.o
 .debug_ranges  0x00000b28      0xd20 build/default/production/src/qrcodegen.o
 .debug_ranges  0x00001848       0x18 /Applications/microchip/xc32/v2.10/bin/bin/../../lib/gcc/pic32mx/4.8.3/../../../../pic32mx/lib/libmchp_peripheral_32MX370F512H.a(pcache.o)
 .debug_ranges  0x00001860       0x10 /Applications/microchip/xc32/v2.10/bin/bin/../../lib/gcc/pic32mx/4.8.3/../../../../pic32mx/lib/libmchp_peripheral_32MX370F512H.a(int_disable_interrupts_lib.o)
 .debug_ranges  0x00001870       0x10 /Applications/microchip/xc32/v2.10/bin/bin/../../lib/gcc/pic32mx/4.8.3/../../../../pic32mx/lib/libmchp_peripheral_32MX370F512H.a(int_restore_interrupts_lib.o)
 .debug_ranges  0x00001880       0x10 /Applications/microchip/xc32/v2.10/bin/bin/../../lib/gcc/pic32mx/4.8.3/../../../../pic32mx/lib/libmchp_peripheral_32MX370F512H.a(int_enable_mv_int_lib.o)
 .debug_ranges  0x00001890       0x10 /Applications/microchip/xc32/v2.10/bin/bin/../../lib/gcc/pic32mx/4.8.3/../../../../pic32mx/lib/libmchp_peripheral_32MX370F512H.a(int_enable_interrupts_lib.o)
 .debug_ranges  0x000018a0       0xd8 /Applications/microchip/xc32/v2.10/bin/bin/../../lib/gcc/pic32mx/4.8.3/libgcc.a(_umoddi3.o)
 .debug_ranges  0x00001978       0x10 /Applications/microchip/xc32/v2.10/bin/bin/../../lib/gcc/pic32mx/4.8.3/../../../../pic32mx/lib/libpic32.a(default-bootstrap-exception-handler.o)
 .debug_ranges  0x00001988       0x10 /Applications/microchip/xc32/v2.10/bin/bin/../../lib/gcc/pic32mx/4.8.3/../../../../pic32mx/lib/libpic32.a(default-on-reset.o)
 .debug_ranges  0x00001998       0x10 /Applications/microchip/xc32/v2.10/bin/bin/../../lib/gcc/pic32mx/4.8.3/../../../../pic32mx/lib/libpic32.a(default-on-bootstrap.o)
 .debug_ranges  0x000019a8       0x10 /Applications/microchip/xc32/v2.10/bin/bin/../../lib/gcc/pic32mx/4.8.3/../../../../pic32mx/lib/libpic32.a(default-general-exception-handler.o)
 .debug_ranges  0x000019b8       0x10 /Applications/microchip/xc32/v2.10/bin/bin/../../lib/gcc/pic32mx/4.8.3/../../../../pic32mx/lib/libpic32.a(defaultinterrupt.o)
 .debug_ranges  0x000019c8       0x10 /Applications/microchip/xc32/v2.10/bin/bin/../../lib/gcc/pic32mx/4.8.3/../../../../pic32mx/lib/libm.a(__strtod.o)
 .debug_ranges  0x000019d8       0x10 /Applications/microchip/xc32/v2.10/bin/bin/../../lib/gcc/pic32mx/4.8.3/../../../../pic32mx/lib/libm.a(__strtof.o)
 .debug_ranges  0x000019e8       0x10 /Applications/microchip/xc32/v2.10/bin/bin/../../lib/gcc/pic32mx/4.8.3/../../../../pic32mx/lib/libe.a(_ldexp.o)
 .debug_ranges  0x000019f8       0x10 /Applications/microchip/xc32/v2.10/bin/bin/../../lib/gcc/pic32mx/4.8.3/../../../../pic32mx/lib/libe.a(_ldexpf.o)
 .debug_ranges  0x00001a08       0x78 /Applications/microchip/xc32/v2.10/bin/bin/../../lib/gcc/pic32mx/4.8.3/libgcc.a(_divdi3.o)
 .debug_ranges  0x00001a80       0x98 /Applications/microchip/xc32/v2.10/bin/bin/../../lib/gcc/pic32mx/4.8.3/libgcc.a(_udivdi3.o)
 .debug_ranges  0x00001b18       0x30 /Applications/microchip/xc32/v2.10/bin/bin/../../lib/gcc/pic32mx/4.8.3/../../../../pic32mx/lib/libpic32.a(sbrk.o)
 .debug_ranges  0x00001b48       0x10 /Applications/microchip/xc32/v2.10/bin/bin/../../lib/gcc/pic32mx/4.8.3/../../../../pic32mx/lib/libpic32.a(_exit.o)
 .debug_ranges  0x00001b58       0x10 /Applications/microchip/xc32/v2.10/bin/bin/../../lib/gcc/pic32mx/4.8.3/../../../../pic32mx/lib/libpic32.a(isatty.o)
 .debug_ranges  0x00001b68       0x10 /Applications/microchip/xc32/v2.10/bin/bin/../../lib/gcc/pic32mx/4.8.3/../../../../pic32mx/lib/libpic32.a(_mon_getc.o)
 .debug_ranges  0x00001b78       0x10 /Applications/microchip/xc32/v2.10/bin/bin/../../lib/gcc/pic32mx/4.8.3/../../../../pic32mx/lib/libpic32.a(_mon_write.o)
 .debug_ranges  0x00001b88       0x10 /Applications/microchip/xc32/v2.10/bin/bin/../../lib/gcc/pic32mx/4.8.3/../../../../pic32mx/lib/libpic32.a(_mon_putc.o)

.gnu.attributes
                0x00000000       0x10
 *(.gnu.attributes)
 .gnu.attributes
                0x00000000       0x10 build/default/production/src/basic/tokenizer.o
 .gnu.attributes
                0x00000010       0x10 build/default/production/src/basic/ubasic.o
 .gnu.attributes
                0x00000020       0x10 build/default/production/src/basic/tokenizer_fast.o
 .gnu.attributes
                0x00000030       0x10 build/default/production/src/basic/tokenizer_slow.o
 .gnu.attributes
                0x00000040       0x10 build/default/production/src/Z80/sim2.o
 .gnu.attributes
                0x00000050       0x10 build/default/production/src/Z80/sim4.o
 .gnu.attributes
                0x00000060       0x10 build/default/production/src/Z80/sim1.o
 .gnu.attributes
                0x00000070       0x10 build/default/production/src/Z80/sim3.o
 .gnu.attributes
                0x00000080       0x10 build/default/production/src/Z80/iosim.o
 .gnu.attributes
                0x00000090       0x10 build/default/production/src/Z80/sim5.o
 .gnu.attributes
                0x000000a0       0x10 build/default/production/src/Z80/sim7.o
 .gnu.attributes
                0x000000b0       0x10 build/default/production/src/Z80/simfun.o
 .gnu.attributes
                0x000000c0       0x10 build/default/production/src/Z80/hwz.o
 .gnu.attributes
                0x000000d0       0x10 build/default/production/src/Z80/simglb.o
 .gnu.attributes
                0x000000e0       0x10 build/default/production/src/Z80/sim6.o
 .gnu.attributes
                0x000000f0       0x10 build/default/production/src/badge.o
 .gnu.attributes
                0x00000100       0x10 build/default/production/src/box_game.o
 .gnu.attributes
                0x00000110       0x10 build/default/production/src/disp.o
 .gnu.attributes
                0x00000120       0x10 build/default/production/src/hw.o
 .gnu.attributes
                0x00000130       0x10 build/default/production/src/images.o
 .gnu.attributes
                0x00000140       0x10 build/default/production/src/main.o
 .gnu.attributes
                0x00000150       0x10 build/default/production/src/post.o
 .gnu.attributes
                0x00000160       0x10 build/default/production/src/snake.o
 .gnu.attributes
                0x00000170       0x10 build/default/production/src/splash.o
 .gnu.attributes
                0x00000180       0x10 build/default/production/src/tetrapuzz.o
 .gnu.attributes
                0x00000190       0x10 build/default/production/src/tune_player.o
 .gnu.attributes
                0x000001a0       0x10 build/default/production/src/vt100.o
 .gnu.attributes
                0x000001b0       0x10 build/default/production/src/nyancat.o
 .gnu.attributes
                0x000001c0       0x10 build/default/production/src/user_program.o
 .gnu.attributes
                0x000001d0       0x10 build/default/production/src/puzzle.o
 .gnu.attributes
                0x000001e0       0x10 build/default/production/src/qrcodegen.o
 .gnu.attributes
                0x000001f0       0x10 /Applications/microchip/xc32/v2.10/bin/bin/../../lib/gcc/pic32mx/4.8.3/../../../../pic32mx/lib/libmchp_peripheral_32MX370F512H.a(pcache.o)
 .gnu.attributes
                0x00000200       0x10 /Applications/microchip/xc32/v2.10/bin/bin/../../lib/gcc/pic32mx/4.8.3/../../../../pic32mx/lib/libmchp_peripheral_32MX370F512H.a(int_disable_interrupts_lib.o)
 .gnu.attributes
                0x00000210       0x10 /Applications/microchip/xc32/v2.10/bin/bin/../../lib/gcc/pic32mx/4.8.3/../../../../pic32mx/lib/libmchp_peripheral_32MX370F512H.a(int_restore_interrupts_lib.o)
 .gnu.attributes
                0x00000220       0x10 /Applications/microchip/xc32/v2.10/bin/bin/../../lib/gcc/pic32mx/4.8.3/../../../../pic32mx/lib/libmchp_peripheral_32MX370F512H.a(int_enable_mv_int_lib.o)
 .gnu.attributes
                0x00000230       0x10 /Applications/microchip/xc32/v2.10/bin/bin/../../lib/gcc/pic32mx/4.8.3/../../../../pic32mx/lib/libmchp_peripheral_32MX370F512H.a(int_enable_interrupts_lib.o)
 .gnu.attributes
                0x00000240       0x10 /Applications/microchip/xc32/v2.10/bin/bin/../../lib/gcc/pic32mx/4.8.3/libgcc.a(_umoddi3.o)
 .gnu.attributes
                0x00000250       0x10 /Applications/microchip/xc32/v2.10/bin/bin/../../lib/gcc/pic32mx/4.8.3/../../../../pic32mx/lib/libpic32.a(default-bootstrap-exception-handler.o)
 .gnu.attributes
                0x00000260       0x10 /Applications/microchip/xc32/v2.10/bin/bin/../../lib/gcc/pic32mx/4.8.3/../../../../pic32mx/lib/libpic32.a(default-on-reset.o)
 .gnu.attributes
                0x00000270       0x10 /Applications/microchip/xc32/v2.10/bin/bin/../../lib/gcc/pic32mx/4.8.3/../../../../pic32mx/lib/libpic32.a(default-on-bootstrap.o)
 .gnu.attributes
                0x00000280       0x10 /Applications/microchip/xc32/v2.10/bin/bin/../../lib/gcc/pic32mx/4.8.3/../../../../pic32mx/lib/libpic32.a(default-general-exception-handler.o)
 .gnu.attributes
                0x00000290       0x10 /Applications/microchip/xc32/v2.10/bin/bin/../../lib/gcc/pic32mx/4.8.3/../../../../pic32mx/lib/libpic32.a(defaultinterrupt.o)
 .gnu.attributes
                0x000002a0       0x10 /Applications/microchip/xc32/v2.10/bin/bin/../../lib/gcc/pic32mx/4.8.3/../../../../pic32mx/lib/liblega-c.a(strcat.o)
 .gnu.attributes
                0x000002b0       0x10 /Applications/microchip/xc32/v2.10/bin/bin/../../lib/gcc/pic32mx/4.8.3/../../../../pic32mx/lib/liblega-c.a(strncmp.o)
 .gnu.attributes
                0x000002c0       0x10 /Applications/microchip/xc32/v2.10/bin/bin/../../lib/gcc/pic32mx/4.8.3/../../../../pic32mx/lib/liblega-c.a(strncpy.o)
 .gnu.attributes
                0x000002d0       0x10 /Applications/microchip/xc32/v2.10/bin/bin/../../lib/gcc/pic32mx/4.8.3/../../../../pic32mx/lib/liblega-c.a(strchr.o)
 .gnu.attributes
                0x000002e0       0x10 /Applications/microchip/xc32/v2.10/bin/bin/../../lib/gcc/pic32mx/4.8.3/../../../../pic32mx/lib/liblega-c.a(memmove.o)
 .gnu.attributes
                0x000002f0       0x10 /Applications/microchip/xc32/v2.10/bin/bin/../../lib/gcc/pic32mx/4.8.3/../../../../pic32mx/lib/liblega-c.a(ctype.o)
 .gnu.attributes
                0x00000300       0x10 /Applications/microchip/xc32/v2.10/bin/bin/../../lib/gcc/pic32mx/4.8.3/../../../../pic32mx/lib/liblega-c.a(ctypef.o)
 .gnu.attributes
                0x00000310       0x10 /Applications/microchip/xc32/v2.10/bin/bin/../../lib/gcc/pic32mx/4.8.3/../../../../pic32mx/lib/liblega-c.a(rand.o)
 .gnu.attributes
                0x00000320       0x10 /Applications/microchip/xc32/v2.10/bin/bin/../../lib/gcc/pic32mx/4.8.3/../../../../pic32mx/lib/liblega-c.a(strtol.o)
 .gnu.attributes
                0x00000330       0x10 /Applications/microchip/xc32/v2.10/bin/bin/../../lib/gcc/pic32mx/4.8.3/../../../../pic32mx/lib/liblega-c.a(printf_cdnopuxX.eo)
 .gnu.attributes
                0x00000340       0x10 /Applications/microchip/xc32/v2.10/bin/bin/../../lib/gcc/pic32mx/4.8.3/../../../../pic32mx/lib/liblega-c.a(sprintf_cdnopsuxX.eo)
 .gnu.attributes
                0x00000350       0x10 /Applications/microchip/xc32/v2.10/bin/bin/../../lib/gcc/pic32mx/4.8.3/../../../../pic32mx/lib/liblega-c.a(sscanf_cdnopuxX.eo)
 .gnu.attributes
                0x00000360       0x10 /Applications/microchip/xc32/v2.10/bin/bin/../../lib/gcc/pic32mx/4.8.3/../../../../pic32mx/lib/liblega-c.a(stubs.o)
 .gnu.attributes
                0x00000370       0x10 /Applications/microchip/xc32/v2.10/bin/bin/../../lib/gcc/pic32mx/4.8.3/../../../../pic32mx/lib/liblega-c.a(fassert.o)
 .gnu.attributes
                0x00000380       0x10 /Applications/microchip/xc32/v2.10/bin/bin/../../lib/gcc/pic32mx/4.8.3/../../../../pic32mx/lib/liblega-c.a(errno.o)
 .gnu.attributes
                0x00000390       0x10 /Applications/microchip/xc32/v2.10/bin/bin/../../lib/gcc/pic32mx/4.8.3/../../../../pic32mx/lib/liblega-c.a(_doprnt_cdnopsuxX.eo)
 .gnu.attributes
                0x000003a0       0x10 /Applications/microchip/xc32/v2.10/bin/bin/../../lib/gcc/pic32mx/4.8.3/../../../../pic32mx/lib/liblega-c.a(_iobdata.o)
 .gnu.attributes
                0x000003b0       0x10 /Applications/microchip/xc32/v2.10/bin/bin/../../lib/gcc/pic32mx/4.8.3/../../../../pic32mx/lib/liblega-c.a(_iobfuncs.o)
 .gnu.attributes
                0x000003c0       0x10 /Applications/microchip/xc32/v2.10/bin/bin/../../lib/gcc/pic32mx/4.8.3/../../../../pic32mx/lib/liblega-c.a(_iobstring.o)
 .gnu.attributes
                0x000003d0       0x10 /Applications/microchip/xc32/v2.10/bin/bin/../../lib/gcc/pic32mx/4.8.3/../../../../pic32mx/lib/liblega-c.a(fputc.o)
 .gnu.attributes
                0x000003e0       0x10 /Applications/microchip/xc32/v2.10/bin/bin/../../lib/gcc/pic32mx/4.8.3/../../../../pic32mx/lib/liblega-c.a(_doscan.o)
 .gnu.attributes
                0x000003f0       0x10 /Applications/microchip/xc32/v2.10/bin/bin/../../lib/gcc/pic32mx/4.8.3/../../../../pic32mx/lib/liblega-c.a(fprintf.o)
 .gnu.attributes
                0x00000400       0x10 /Applications/microchip/xc32/v2.10/bin/bin/../../lib/gcc/pic32mx/4.8.3/../../../../pic32mx/lib/liblega-c.a(abort.o)
 .gnu.attributes
                0x00000410       0x10 /Applications/microchip/xc32/v2.10/bin/bin/../../lib/gcc/pic32mx/4.8.3/../../../../pic32mx/lib/liblega-c.a(malloc.o)
 .gnu.attributes
                0x00000420       0x10 /Applications/microchip/xc32/v2.10/bin/bin/../../lib/gcc/pic32mx/4.8.3/../../../../pic32mx/lib/liblega-c.a(malloc_realloc.o)
 .gnu.attributes
                0x00000430       0x10 /Applications/microchip/xc32/v2.10/bin/bin/../../lib/gcc/pic32mx/4.8.3/../../../../pic32mx/lib/liblega-c.a(strtoul.o)
 .gnu.attributes
                0x00000440       0x10 /Applications/microchip/xc32/v2.10/bin/bin/../../lib/gcc/pic32mx/4.8.3/../../../../pic32mx/lib/liblega-c.a(strtoll.o)
 .gnu.attributes
                0x00000450       0x10 /Applications/microchip/xc32/v2.10/bin/bin/../../lib/gcc/pic32mx/4.8.3/../../../../pic32mx/lib/liblega-c.a(strtoull.o)
 .gnu.attributes
                0x00000460       0x10 /Applications/microchip/xc32/v2.10/bin/bin/../../lib/gcc/pic32mx/4.8.3/../../../../pic32mx/lib/liblega-c.a(strtod.o)
 .gnu.attributes
                0x00000470       0x10 /Applications/microchip/xc32/v2.10/bin/bin/../../lib/gcc/pic32mx/4.8.3/../../../../pic32mx/lib/liblega-c.a(strtof.o)
 .gnu.attributes
                0x00000480       0x10 /Applications/microchip/xc32/v2.10/bin/bin/../../lib/gcc/pic32mx/4.8.3/../../../../pic32mx/lib/liblega-c.a(fullexit.o)
 .gnu.attributes
                0x00000490       0x10 /Applications/microchip/xc32/v2.10/bin/bin/../../lib/gcc/pic32mx/4.8.3/../../../../pic32mx/lib/liblega-c.a(_doprnt.o)
 .gnu.attributes
                0x000004a0       0x10 /Applications/microchip/xc32/v2.10/bin/bin/../../lib/gcc/pic32mx/4.8.3/../../../../pic32mx/lib/liblega-c.a(fgetc.o)
 .gnu.attributes
                0x000004b0       0x10 /Applications/microchip/xc32/v2.10/bin/bin/../../lib/gcc/pic32mx/4.8.3/../../../../pic32mx/lib/liblega-c.a(ungetc.o)
 .gnu.attributes
                0x000004c0       0x10 /Applications/microchip/xc32/v2.10/bin/bin/../../lib/gcc/pic32mx/4.8.3/../../../../pic32mx/lib/liblega-c.a(_ioinit.o)
 .gnu.attributes
                0x000004d0       0x10 /Applications/microchip/xc32/v2.10/bin/bin/../../lib/gcc/pic32mx/4.8.3/../../../../pic32mx/lib/liblega-c.a(_cleanup.o)
 .gnu.attributes
                0x000004e0       0x10 /Applications/microchip/xc32/v2.10/bin/bin/../../lib/gcc/pic32mx/4.8.3/../../../../pic32mx/lib/liblega-c.a(_bufproc.o)
 .gnu.attributes
                0x000004f0       0x10 /Applications/microchip/xc32/v2.10/bin/bin/../../lib/gcc/pic32mx/4.8.3/../../../../pic32mx/lib/libm.a(__strtod.o)
 .gnu.attributes
                0x00000500       0x10 /Applications/microchip/xc32/v2.10/bin/bin/../../lib/gcc/pic32mx/4.8.3/../../../../pic32mx/lib/libm.a(__strtof.o)
 .gnu.attributes
                0x00000510       0x10 /Applications/microchip/xc32/v2.10/bin/bin/../../lib/gcc/pic32mx/4.8.3/../../../../pic32mx/lib/libe.a(_ldexp.o)
 .gnu.attributes
                0x00000520       0x10 /Applications/microchip/xc32/v2.10/bin/bin/../../lib/gcc/pic32mx/4.8.3/../../../../pic32mx/lib/libe.a(_ldexpf.o)
 .gnu.attributes
                0x00000530       0x10 /Applications/microchip/xc32/v2.10/bin/bin/../../lib/gcc/pic32mx/4.8.3/libgcc.a(_lshrdi3.o)
 .gnu.attributes
                0x00000540       0x10 /Applications/microchip/xc32/v2.10/bin/bin/../../lib/gcc/pic32mx/4.8.3/libgcc.a(_ashldi3.o)
 .gnu.attributes
                0x00000550       0x10 /Applications/microchip/xc32/v2.10/bin/bin/../../lib/gcc/pic32mx/4.8.3/libgcc.a(_divdi3.o)
 .gnu.attributes
                0x00000560       0x10 /Applications/microchip/xc32/v2.10/bin/bin/../../lib/gcc/pic32mx/4.8.3/libgcc.a(_udivdi3.o)
 .gnu.attributes
                0x00000570       0x10 /Applications/microchip/xc32/v2.10/bin/bin/../../lib/gcc/pic32mx/4.8.3/../../../../pic32mx/lib/libpic32.a(sbrk.o)
 .gnu.attributes
                0x00000580       0x10 /Applications/microchip/xc32/v2.10/bin/bin/../../lib/gcc/pic32mx/4.8.3/../../../../pic32mx/lib/libpic32.a(_exit.o)
 .gnu.attributes
                0x00000590       0x10 /Applications/microchip/xc32/v2.10/bin/bin/../../lib/gcc/pic32mx/4.8.3/../../../../pic32mx/lib/libpic32.a(isatty.o)
 .gnu.attributes
                0x000005a0       0x10 /Applications/microchip/xc32/v2.10/bin/bin/../../lib/gcc/pic32mx/4.8.3/../../../../pic32mx/lib/libpic32.a(_mon_getc.o)
 .gnu.attributes
                0x000005b0       0x10 /Applications/microchip/xc32/v2.10/bin/bin/../../lib/gcc/pic32mx/4.8.3/../../../../pic32mx/lib/libpic32.a(_mon_write.o)
 .gnu.attributes
                0x000005c0       0x10 /Applications/microchip/xc32/v2.10/bin/bin/../../lib/gcc/pic32mx/4.8.3/../../../../pic32mx/lib/libpic32.a(xc32_uart.o)
 .gnu.attributes
                0x000005d0       0x10 /Applications/microchip/xc32/v2.10/bin/bin/../../lib/gcc/pic32mx/4.8.3/../../../../pic32mx/lib/libpic32.a(_mon_putc.o)
LOAD /Applications/microchip/xc32/v2.10/bin/bin/../../lib/gcc/pic32mx/4.8.3/libgcc.a
START GROUP
LOAD /Applications/microchip/xc32/v2.10/bin/bin/../../lib/gcc/pic32mx/4.8.3/../../../../pic32mx/lib/libpic32.a
LOAD /Applications/microchip/xc32/v2.10/bin/bin/../../lib/gcc/pic32mx/4.8.3/../../../../pic32mx/lib/libdebug.a
LOAD /Applications/microchip/xc32/v2.10/bin/bin/../../lib/gcc/pic32mx/4.8.3/../../../../pic32mx/lib/libpic32.a
LOAD /Applications/microchip/xc32/v2.10/bin/bin/../../lib/gcc/pic32mx/4.8.3/../../../../pic32mx/lib/liblega-c.a
LOAD /Applications/microchip/xc32/v2.10/bin/bin/../../lib/gcc/pic32mx/4.8.3/../../../../pic32mx/lib/libm.a
LOAD /Applications/microchip/xc32/v2.10/bin/bin/../../lib/gcc/pic32mx/4.8.3/../../../../pic32mx/lib/libe.a
LOAD /Applications/microchip/xc32/v2.10/bin/bin/../../lib/gcc/pic32mx/4.8.3/../../../../pic32mx/lib/libdsp.a
LOAD /Applications/microchip/xc32/v2.10/bin/bin/../../lib/gcc/pic32mx/4.8.3/libgcc.a
LOAD /Applications/microchip/xc32/v2.10/bin/bin/../../lib/gcc/pic32mx/4.8.3/../../../../pic32mx/lib/libpic32.a
END GROUP
LOAD /Applications/microchip/xc32/v2.10/bin/bin/../../lib/gcc/pic32mx/4.8.3/libgcc.a
OUTPUT(dist/default/production/badge-supercon18.X.production.elf elf32-tradlittlemips)
LOAD stack
LOAD data_init

.reginfo        0x00000000       0x18
 .reginfo       0x00000000       0x18 /Applications/microchip/xc32/v2.10/bin/bin/../../lib/gcc/pic32mx/4.8.3/../../../../pic32mx/lib/./proc/32MX370F512H/crt0_mips32r2.o

.stack          0xa001c5c0       0x80
 .stack         0xa001c5c0       0x80 stack

.data           0xa001ba00      0x718
 .data          0xa001ba00      0x410 /Applications/microchip/xc32/v2.10/bin/bin/../../lib/gcc/pic32mx/4.8.3/../../../../pic32mx/lib/liblega-c.a(malloc.o)
                0xa001ba00                malloc_sbrk_base
                0xa001ba04                malloc_trim_threshold
                0xa001ba08                malloc_av_
 .data          0xa001be10      0x308 build/default/production/src/badge.o
                0xa001be10                cracks
                0xa001be5c                bprog_init

.bss            0xa001c118      0x138
 .bss           0xa001c118      0x138 build/default/production/src/basic/ubasic.o

.data           0xa001c250       0xd4
 .data          0xa001c250       0xd4 /Applications/microchip/xc32/v2.10/bin/bin/../../lib/gcc/pic32mx/4.8.3/../../../../pic32mx/lib/liblega-c.a(_iobdata.o)

.bss            0xa001c324       0x88
 .bss           0xa001c324       0x88 /Applications/microchip/xc32/v2.10/bin/bin/../../lib/gcc/pic32mx/4.8.3/../../../../pic32mx/lib/liblega-c.a(_iobdata.o)

.data           0xa001c3ac       0x94
 .data          0xa001c3ac       0x54 build/default/production/src/nyancat.o
                0xa001c3ac                cat4_frames
                0xa001c3dc                nyancat_measures
 .data          0xa001c400       0x40 build/default/production/src/disp.o
                0xa001c400                color_table

.bss            0xa001c440       0x68
 .bss           0xa001c440       0x34 build/default/production/src/vt100.o
 .bss           0xa001c474       0x34 /Applications/microchip/xc32/v2.10/bin/bin/../../lib/gcc/pic32mx/4.8.3/../../../../pic32mx/lib/liblega-c.a(malloc.o)
                0xa001c474                malloc_current_mallinfo
                0xa001c49c                malloc_max_total_mem
                0xa001c4a0                malloc_max_sbrked_mem
                0xa001c4a4                malloc_top_pad

.data           0xa001c4a8       0x30
 .data          0xa001c4a8       0x30 /Applications/microchip/xc32/v2.10/bin/bin/../../lib/gcc/pic32mx/4.8.3/../../../../pic32mx/lib/liblega-c.a(rand.o)

.bss            0xa001c4d8       0x24
 .bss           0xa001c4d8       0x24 /Applications/microchip/xc32/v2.10/bin/bin/../../lib/gcc/pic32mx/4.8.3/../../../../pic32mx/lib/libpic32.a(sbrk.o)
                0xa001c4f4                _maxbrk
                0xa001c4f8                _minbrk

.data           0xa001c4fc       0x20
 .data          0xa001c4fc       0x20 /Applications/microchip/xc32/v2.10/bin/bin/../../lib/gcc/pic32mx/4.8.3/../../../../pic32mx/lib/liblega-c.a(fullexit.o)
                0xa001c4fc                __exfun_mx

.bss            0xa001c51c        0x8
 .bss           0xa001c51c        0x4 /Applications/microchip/xc32/v2.10/bin/bin/../../lib/gcc/pic32mx/4.8.3/../../../../pic32mx/lib/liblega-c.a(stubs.o)
                0xa001c51c                __isthreaded
 .bss           0xa001c520        0x4 /Applications/microchip/xc32/v2.10/bin/bin/../../lib/gcc/pic32mx/4.8.3/../../../../pic32mx/lib/liblega-c.a(_cleanup.o)
                0xa001c520                __cleanup

.bss%z1         0x00000000        0x0
 .bss           0x00000000        0x0 /Applications/microchip/xc32/v2.10/bin/bin/../../lib/gcc/pic32mx/4.8.3/../../../../pic32mx/lib/libpic32.a(_mon_putc.o)

.data%z2        0x00000000        0x0
 .data          0x00000000        0x0 /Applications/microchip/xc32/v2.10/bin/bin/../../lib/gcc/pic32mx/4.8.3/../../../../pic32mx/lib/libpic32.a(_mon_putc.o)

.bss%z3         0x00000000        0x0
 .bss           0x00000000        0x0 /Applications/microchip/xc32/v2.10/bin/bin/../../lib/gcc/pic32mx/4.8.3/../../../../pic32mx/lib/libpic32.a(xc32_uart.o)

.data%z4        0x00000000        0x0
 .data          0x00000000        0x0 /Applications/microchip/xc32/v2.10/bin/bin/../../lib/gcc/pic32mx/4.8.3/../../../../pic32mx/lib/libpic32.a(xc32_uart.o)

.bss%z5         0x00000000        0x0
 .bss           0x00000000        0x0 /Applications/microchip/xc32/v2.10/bin/bin/../../lib/gcc/pic32mx/4.8.3/../../../../pic32mx/lib/libpic32.a(_mon_write.o)

.data%z6        0x00000000        0x0
 .data          0x00000000        0x0 /Applications/microchip/xc32/v2.10/bin/bin/../../lib/gcc/pic32mx/4.8.3/../../../../pic32mx/lib/libpic32.a(_mon_write.o)

.bss%z7         0x00000000        0x0
 .bss           0x00000000        0x0 /Applications/microchip/xc32/v2.10/bin/bin/../../lib/gcc/pic32mx/4.8.3/../../../../pic32mx/lib/libpic32.a(_mon_getc.o)

.data%z8        0x00000000        0x0
 .data          0x00000000        0x0 /Applications/microchip/xc32/v2.10/bin/bin/../../lib/gcc/pic32mx/4.8.3/../../../../pic32mx/lib/libpic32.a(_mon_getc.o)

.bss%z9         0x00000000        0x0
 .bss           0x00000000        0x0 /Applications/microchip/xc32/v2.10/bin/bin/../../lib/gcc/pic32mx/4.8.3/../../../../pic32mx/lib/libpic32.a(isatty.o)

.data%z10       0x00000000        0x0
 .data          0x00000000        0x0 /Applications/microchip/xc32/v2.10/bin/bin/../../lib/gcc/pic32mx/4.8.3/../../../../pic32mx/lib/libpic32.a(isatty.o)

.bss%z11        0x00000000        0x0
 .bss           0x00000000        0x0 /Applications/microchip/xc32/v2.10/bin/bin/../../lib/gcc/pic32mx/4.8.3/../../../../pic32mx/lib/libpic32.a(_exit.o)

.data%z12       0x00000000        0x0
 .data          0x00000000        0x0 /Applications/microchip/xc32/v2.10/bin/bin/../../lib/gcc/pic32mx/4.8.3/../../../../pic32mx/lib/libpic32.a(_exit.o)

.data%z13       0x00000000        0x0
 .data          0x00000000        0x0 /Applications/microchip/xc32/v2.10/bin/bin/../../lib/gcc/pic32mx/4.8.3/../../../../pic32mx/lib/libpic32.a(sbrk.o)

.bss%z14        0x00000000        0x0
 .bss           0x00000000        0x0 /Applications/microchip/xc32/v2.10/bin/bin/../../lib/gcc/pic32mx/4.8.3/libgcc.a(_udivdi3.o)

.data%z15       0x00000000        0x0
 .data          0x00000000        0x0 /Applications/microchip/xc32/v2.10/bin/bin/../../lib/gcc/pic32mx/4.8.3/libgcc.a(_udivdi3.o)

.bss%z16        0x00000000        0x0
 .bss           0x00000000        0x0 /Applications/microchip/xc32/v2.10/bin/bin/../../lib/gcc/pic32mx/4.8.3/libgcc.a(_divdi3.o)

.data%z17       0x00000000        0x0
 .data          0x00000000        0x0 /Applications/microchip/xc32/v2.10/bin/bin/../../lib/gcc/pic32mx/4.8.3/libgcc.a(_divdi3.o)

.bss%z18        0x00000000        0x0
 .bss           0x00000000        0x0 /Applications/microchip/xc32/v2.10/bin/bin/../../lib/gcc/pic32mx/4.8.3/libgcc.a(_ashldi3.o)

.data%z19       0x00000000        0x0
 .data          0x00000000        0x0 /Applications/microchip/xc32/v2.10/bin/bin/../../lib/gcc/pic32mx/4.8.3/libgcc.a(_ashldi3.o)

.bss%z20        0x00000000        0x0
 .bss           0x00000000        0x0 /Applications/microchip/xc32/v2.10/bin/bin/../../lib/gcc/pic32mx/4.8.3/libgcc.a(_lshrdi3.o)

.data%z21       0x00000000        0x0
 .data          0x00000000        0x0 /Applications/microchip/xc32/v2.10/bin/bin/../../lib/gcc/pic32mx/4.8.3/libgcc.a(_lshrdi3.o)

.bss%z22        0x00000000        0x0
 .bss           0x00000000        0x0 /Applications/microchip/xc32/v2.10/bin/bin/../../lib/gcc/pic32mx/4.8.3/../../../../pic32mx/lib/libe.a(_ldexpf.o)

.data%z23       0x00000000        0x0
 .data          0x00000000        0x0 /Applications/microchip/xc32/v2.10/bin/bin/../../lib/gcc/pic32mx/4.8.3/../../../../pic32mx/lib/libe.a(_ldexpf.o)

.bss%z24        0x00000000        0x0
 .bss           0x00000000        0x0 /Applications/microchip/xc32/v2.10/bin/bin/../../lib/gcc/pic32mx/4.8.3/../../../../pic32mx/lib/libe.a(_ldexp.o)

.data%z25       0x00000000        0x0
 .data          0x00000000        0x0 /Applications/microchip/xc32/v2.10/bin/bin/../../lib/gcc/pic32mx/4.8.3/../../../../pic32mx/lib/libe.a(_ldexp.o)

.bss%z26        0x00000000        0x0
 .bss           0x00000000        0x0 /Applications/microchip/xc32/v2.10/bin/bin/../../lib/gcc/pic32mx/4.8.3/../../../../pic32mx/lib/libm.a(negsf2.o)

.data%z27       0x00000000        0x0
 .data          0x00000000        0x0 /Applications/microchip/xc32/v2.10/bin/bin/../../lib/gcc/pic32mx/4.8.3/../../../../pic32mx/lib/libm.a(negsf2.o)

.bss%z28        0x00000000        0x0
 .bss           0x00000000        0x0 /Applications/microchip/xc32/v2.10/bin/bin/../../lib/gcc/pic32mx/4.8.3/../../../../pic32mx/lib/libm.a(negdf2.o)

.data%z29       0x00000000        0x0
 .data          0x00000000        0x0 /Applications/microchip/xc32/v2.10/bin/bin/../../lib/gcc/pic32mx/4.8.3/../../../../pic32mx/lib/libm.a(negdf2.o)

.bss%z30        0x00000000        0x0
 .bss           0x00000000        0x0 /Applications/microchip/xc32/v2.10/bin/bin/../../lib/gcc/pic32mx/4.8.3/../../../../pic32mx/lib/libm.a(litodp.o)

.data%z31       0x00000000        0x0
 .data          0x00000000        0x0 /Applications/microchip/xc32/v2.10/bin/bin/../../lib/gcc/pic32mx/4.8.3/../../../../pic32mx/lib/libm.a(litodp.o)

.bss%z32        0x00000000        0x0
 .bss           0x00000000        0x0 /Applications/microchip/xc32/v2.10/bin/bin/../../lib/gcc/pic32mx/4.8.3/../../../../pic32mx/lib/libm.a(dp32subadd.o)

.data%z33       0x00000000        0x0
 .data          0x00000000        0x0 /Applications/microchip/xc32/v2.10/bin/bin/../../lib/gcc/pic32mx/4.8.3/../../../../pic32mx/lib/libm.a(dp32subadd.o)

.bss%z34        0x00000000        0x0
 .bss           0x00000000        0x0 /Applications/microchip/xc32/v2.10/bin/bin/../../lib/gcc/pic32mx/4.8.3/../../../../pic32mx/lib/libm.a(dp32mul.o)

.data%z35       0x00000000        0x0
 .data          0x00000000        0x0 /Applications/microchip/xc32/v2.10/bin/bin/../../lib/gcc/pic32mx/4.8.3/../../../../pic32mx/lib/libm.a(dp32mul.o)

.bss%z36        0x00000000        0x0
 .bss           0x00000000        0x0 /Applications/microchip/xc32/v2.10/bin/bin/../../lib/gcc/pic32mx/4.8.3/../../../../pic32mx/lib/libm.a(dp32div.o)

.data%z37       0x00000000        0x0
 .data          0x00000000        0x0 /Applications/microchip/xc32/v2.10/bin/bin/../../lib/gcc/pic32mx/4.8.3/../../../../pic32mx/lib/libm.a(dp32div.o)

.bss%z38        0x00000000        0x0
 .bss           0x00000000        0x0 /Applications/microchip/xc32/v2.10/bin/bin/../../lib/gcc/pic32mx/4.8.3/../../../../pic32mx/lib/libm.a(__strtof.o)

.data%z39       0x00000000        0x0
 .data          0x00000000        0x0 /Applications/microchip/xc32/v2.10/bin/bin/../../lib/gcc/pic32mx/4.8.3/../../../../pic32mx/lib/libm.a(__strtof.o)

.bss%z40        0x00000000        0x0
 .bss           0x00000000        0x0 /Applications/microchip/xc32/v2.10/bin/bin/../../lib/gcc/pic32mx/4.8.3/../../../../pic32mx/lib/libm.a(__strtod.o)

.data%z41       0x00000000        0x0
 .data          0x00000000        0x0 /Applications/microchip/xc32/v2.10/bin/bin/../../lib/gcc/pic32mx/4.8.3/../../../../pic32mx/lib/libm.a(__strtod.o)

.bss%z42        0x00000000        0x0
 .bss           0x00000000        0x0 /Applications/microchip/xc32/v2.10/bin/bin/../../lib/gcc/pic32mx/4.8.3/../../../../pic32mx/lib/libm.a(sitofp.o)

.data%z43       0x00000000        0x0
 .data          0x00000000        0x0 /Applications/microchip/xc32/v2.10/bin/bin/../../lib/gcc/pic32mx/4.8.3/../../../../pic32mx/lib/libm.a(sitofp.o)

.bss%z44        0x00000000        0x0
 .bss           0x00000000        0x0 /Applications/microchip/xc32/v2.10/bin/bin/../../lib/gcc/pic32mx/4.8.3/../../../../pic32mx/lib/libm.a(fptoli.o)

.data%z45       0x00000000        0x0
 .data          0x00000000        0x0 /Applications/microchip/xc32/v2.10/bin/bin/../../lib/gcc/pic32mx/4.8.3/../../../../pic32mx/lib/libm.a(fptoli.o)

.bss%z46        0x00000000        0x0
 .bss           0x00000000        0x0 /Applications/microchip/xc32/v2.10/bin/bin/../../lib/gcc/pic32mx/4.8.3/../../../../pic32mx/lib/libm.a(fptodp.o)

.data%z47       0x00000000        0x0
 .data          0x00000000        0x0 /Applications/microchip/xc32/v2.10/bin/bin/../../lib/gcc/pic32mx/4.8.3/../../../../pic32mx/lib/libm.a(fptodp.o)

.bss%z48        0x00000000        0x0
 .bss           0x00000000        0x0 /Applications/microchip/xc32/v2.10/bin/bin/../../lib/gcc/pic32mx/4.8.3/../../../../pic32mx/lib/libm.a(fpmodf.o)

.data%z49       0x00000000        0x0
 .data          0x00000000        0x0 /Applications/microchip/xc32/v2.10/bin/bin/../../lib/gcc/pic32mx/4.8.3/../../../../pic32mx/lib/libm.a(fpmodf.o)

.bss%z50        0x00000000        0x0
 .bss           0x00000000        0x0 /Applications/microchip/xc32/v2.10/bin/bin/../../lib/gcc/pic32mx/4.8.3/../../../../pic32mx/lib/libm.a(fpfloo32.o)

.data%z51       0x00000000        0x0
 .data          0x00000000        0x0 /Applications/microchip/xc32/v2.10/bin/bin/../../lib/gcc/pic32mx/4.8.3/../../../../pic32mx/lib/libm.a(fpfloo32.o)

.bss%z52        0x00000000        0x0
 .bss           0x00000000        0x0 /Applications/microchip/xc32/v2.10/bin/bin/../../lib/gcc/pic32mx/4.8.3/../../../../pic32mx/lib/libm.a(fpcmp.o)

.data%z53       0x00000000        0x0
 .data          0x00000000        0x0 /Applications/microchip/xc32/v2.10/bin/bin/../../lib/gcc/pic32mx/4.8.3/../../../../pic32mx/lib/libm.a(fpcmp.o)

.bss%z54        0x00000000        0x0
 .bss           0x00000000        0x0 /Applications/microchip/xc32/v2.10/bin/bin/../../lib/gcc/pic32mx/4.8.3/../../../../pic32mx/lib/libm.a(fp32subadd.o)

.data%z55       0x00000000        0x0
 .data          0x00000000        0x0 /Applications/microchip/xc32/v2.10/bin/bin/../../lib/gcc/pic32mx/4.8.3/../../../../pic32mx/lib/libm.a(fp32subadd.o)

.bss%z56        0x00000000        0x0
 .bss           0x00000000        0x0 /Applications/microchip/xc32/v2.10/bin/bin/../../lib/gcc/pic32mx/4.8.3/../../../../pic32mx/lib/libm.a(fp32mul.o)

.data%z57       0x00000000        0x0
 .data          0x00000000        0x0 /Applications/microchip/xc32/v2.10/bin/bin/../../lib/gcc/pic32mx/4.8.3/../../../../pic32mx/lib/libm.a(fp32mul.o)

.bss%z58        0x00000000        0x0
 .bss           0x00000000        0x0 /Applications/microchip/xc32/v2.10/bin/bin/../../lib/gcc/pic32mx/4.8.3/../../../../pic32mx/lib/libm.a(fp32div.o)

.data%z59       0x00000000        0x0
 .data          0x00000000        0x0 /Applications/microchip/xc32/v2.10/bin/bin/../../lib/gcc/pic32mx/4.8.3/../../../../pic32mx/lib/libm.a(fp32div.o)

.bss%z60        0x00000000        0x0
 .bss           0x00000000        0x0 /Applications/microchip/xc32/v2.10/bin/bin/../../lib/gcc/pic32mx/4.8.3/../../../../pic32mx/lib/libm.a(dptofp.o)

.data%z61       0x00000000        0x0
 .data          0x00000000        0x0 /Applications/microchip/xc32/v2.10/bin/bin/../../lib/gcc/pic32mx/4.8.3/../../../../pic32mx/lib/libm.a(dptofp.o)

.bss%z62        0x00000000        0x0
 .bss           0x00000000        0x0 /Applications/microchip/xc32/v2.10/bin/bin/../../lib/gcc/pic32mx/4.8.3/../../../../pic32mx/lib/liblega-c.a(_bufproc.o)

.data%z63       0x00000000        0x0
 .data          0x00000000        0x0 /Applications/microchip/xc32/v2.10/bin/bin/../../lib/gcc/pic32mx/4.8.3/../../../../pic32mx/lib/liblega-c.a(_bufproc.o)

.data%z64       0x00000000        0x0
 .data          0x00000000        0x0 /Applications/microchip/xc32/v2.10/bin/bin/../../lib/gcc/pic32mx/4.8.3/../../../../pic32mx/lib/liblega-c.a(_cleanup.o)

.bss%z65        0x00000000        0x0
 .bss           0x00000000        0x0 /Applications/microchip/xc32/v2.10/bin/bin/../../lib/gcc/pic32mx/4.8.3/../../../../pic32mx/lib/liblega-c.a(_ioinit.o)

.data%z66       0x00000000        0x0
 .data          0x00000000        0x0 /Applications/microchip/xc32/v2.10/bin/bin/../../lib/gcc/pic32mx/4.8.3/../../../../pic32mx/lib/liblega-c.a(_ioinit.o)

.bss%z67        0x00000000        0x0
 .bss           0x00000000        0x0 /Applications/microchip/xc32/v2.10/bin/bin/../../lib/gcc/pic32mx/4.8.3/../../../../pic32mx/lib/liblega-c.a(ungetc.o)

.data%z68       0x00000000        0x0
 .data          0x00000000        0x0 /Applications/microchip/xc32/v2.10/bin/bin/../../lib/gcc/pic32mx/4.8.3/../../../../pic32mx/lib/liblega-c.a(ungetc.o)

.bss%z69        0x00000000        0x0
 .bss           0x00000000        0x0 /Applications/microchip/xc32/v2.10/bin/bin/../../lib/gcc/pic32mx/4.8.3/../../../../pic32mx/lib/liblega-c.a(fgetc.o)

.data%z70       0x00000000        0x0
 .data          0x00000000        0x0 /Applications/microchip/xc32/v2.10/bin/bin/../../lib/gcc/pic32mx/4.8.3/../../../../pic32mx/lib/liblega-c.a(fgetc.o)

.bss%z71        0x00000000        0x0
 .bss           0x00000000        0x0 /Applications/microchip/xc32/v2.10/bin/bin/../../lib/gcc/pic32mx/4.8.3/../../../../pic32mx/lib/liblega-c.a(_doprnt.o)

.data%z72       0x00000000        0x0
 .data          0x00000000        0x0 /Applications/microchip/xc32/v2.10/bin/bin/../../lib/gcc/pic32mx/4.8.3/../../../../pic32mx/lib/liblega-c.a(_doprnt.o)

.bss%z73        0x00000000        0x0
 .bss           0x00000000        0x0 /Applications/microchip/xc32/v2.10/bin/bin/../../lib/gcc/pic32mx/4.8.3/../../../../pic32mx/lib/liblega-c.a(fullexit.o)

.bss%z74        0x00000000        0x0
 .bss           0x00000000        0x0 /Applications/microchip/xc32/v2.10/bin/bin/../../lib/gcc/pic32mx/4.8.3/../../../../pic32mx/lib/liblega-c.a(strtof.o)

.data%z75       0x00000000        0x0
 .data          0x00000000        0x0 /Applications/microchip/xc32/v2.10/bin/bin/../../lib/gcc/pic32mx/4.8.3/../../../../pic32mx/lib/liblega-c.a(strtof.o)

.bss%z76        0x00000000        0x0
 .bss           0x00000000        0x0 /Applications/microchip/xc32/v2.10/bin/bin/../../lib/gcc/pic32mx/4.8.3/../../../../pic32mx/lib/liblega-c.a(strtod.o)

.data%z77       0x00000000        0x0
 .data          0x00000000        0x0 /Applications/microchip/xc32/v2.10/bin/bin/../../lib/gcc/pic32mx/4.8.3/../../../../pic32mx/lib/liblega-c.a(strtod.o)

.bss%z78        0x00000000        0x0
 .bss           0x00000000        0x0 /Applications/microchip/xc32/v2.10/bin/bin/../../lib/gcc/pic32mx/4.8.3/../../../../pic32mx/lib/liblega-c.a(strtoull.o)

.data%z79       0x00000000        0x0
 .data          0x00000000        0x0 /Applications/microchip/xc32/v2.10/bin/bin/../../lib/gcc/pic32mx/4.8.3/../../../../pic32mx/lib/liblega-c.a(strtoull.o)

.bss%z80        0x00000000        0x0
 .bss           0x00000000        0x0 /Applications/microchip/xc32/v2.10/bin/bin/../../lib/gcc/pic32mx/4.8.3/../../../../pic32mx/lib/liblega-c.a(strtoll.o)

.data%z81       0x00000000        0x0
 .data          0x00000000        0x0 /Applications/microchip/xc32/v2.10/bin/bin/../../lib/gcc/pic32mx/4.8.3/../../../../pic32mx/lib/liblega-c.a(strtoll.o)

.bss%z82        0x00000000        0x0
 .bss           0x00000000        0x0 /Applications/microchip/xc32/v2.10/bin/bin/../../lib/gcc/pic32mx/4.8.3/../../../../pic32mx/lib/liblega-c.a(strtoul.o)

.data%z83       0x00000000        0x0
 .data          0x00000000        0x0 /Applications/microchip/xc32/v2.10/bin/bin/../../lib/gcc/pic32mx/4.8.3/../../../../pic32mx/lib/liblega-c.a(strtoul.o)

.bss%z84        0x00000000        0x0
 .bss           0x00000000        0x0 /Applications/microchip/xc32/v2.10/bin/bin/../../lib/gcc/pic32mx/4.8.3/../../../../pic32mx/lib/liblega-c.a(malloc_realloc.o)

.data%z85       0x00000000        0x0
 .data          0x00000000        0x0 /Applications/microchip/xc32/v2.10/bin/bin/../../lib/gcc/pic32mx/4.8.3/../../../../pic32mx/lib/liblega-c.a(malloc_realloc.o)

.bss%z86        0x00000000        0x0
 .bss           0x00000000        0x0 /Applications/microchip/xc32/v2.10/bin/bin/../../lib/gcc/pic32mx/4.8.3/../../../../pic32mx/lib/liblega-c.a(abort.o)

.data%z87       0x00000000        0x0
 .data          0x00000000        0x0 /Applications/microchip/xc32/v2.10/bin/bin/../../lib/gcc/pic32mx/4.8.3/../../../../pic32mx/lib/liblega-c.a(abort.o)

.bss%z88        0x00000000        0x0
 .bss           0x00000000        0x0 /Applications/microchip/xc32/v2.10/bin/bin/../../lib/gcc/pic32mx/4.8.3/../../../../pic32mx/lib/liblega-c.a(fprintf.o)

.data%z89       0x00000000        0x0
 .data          0x00000000        0x0 /Applications/microchip/xc32/v2.10/bin/bin/../../lib/gcc/pic32mx/4.8.3/../../../../pic32mx/lib/liblega-c.a(fprintf.o)

.bss%z90        0x00000000        0x0
 .bss           0x00000000        0x0 /Applications/microchip/xc32/v2.10/bin/bin/../../lib/gcc/pic32mx/4.8.3/../../../../pic32mx/lib/liblega-c.a(_doscan.o)

.data%z91       0x00000000        0x0
 .data          0x00000000        0x0 /Applications/microchip/xc32/v2.10/bin/bin/../../lib/gcc/pic32mx/4.8.3/../../../../pic32mx/lib/liblega-c.a(_doscan.o)

.bss%z92        0x00000000        0x0
 .bss           0x00000000        0x0 /Applications/microchip/xc32/v2.10/bin/bin/../../lib/gcc/pic32mx/4.8.3/../../../../pic32mx/lib/liblega-c.a(fputc.o)

.data%z93       0x00000000        0x0
 .data          0x00000000        0x0 /Applications/microchip/xc32/v2.10/bin/bin/../../lib/gcc/pic32mx/4.8.3/../../../../pic32mx/lib/liblega-c.a(fputc.o)

.bss%z94        0x00000000        0x0
 .bss           0x00000000        0x0 /Applications/microchip/xc32/v2.10/bin/bin/../../lib/gcc/pic32mx/4.8.3/../../../../pic32mx/lib/liblega-c.a(_iobstring.o)

.data%z95       0x00000000        0x0
 .data          0x00000000        0x0 /Applications/microchip/xc32/v2.10/bin/bin/../../lib/gcc/pic32mx/4.8.3/../../../../pic32mx/lib/liblega-c.a(_iobstring.o)

.bss%z96        0x00000000        0x0
 .bss           0x00000000        0x0 /Applications/microchip/xc32/v2.10/bin/bin/../../lib/gcc/pic32mx/4.8.3/../../../../pic32mx/lib/liblega-c.a(_iobfuncs.o)

.data%z97       0x00000000        0x0
 .data          0x00000000        0x0 /Applications/microchip/xc32/v2.10/bin/bin/../../lib/gcc/pic32mx/4.8.3/../../../../pic32mx/lib/liblega-c.a(_iobfuncs.o)

.bss%z98        0x00000000        0x0
 .bss           0x00000000        0x0 /Applications/microchip/xc32/v2.10/bin/bin/../../lib/gcc/pic32mx/4.8.3/../../../../pic32mx/lib/liblega-c.a(_doprnt_cdnopsuxX.eo)

.data%z99       0x00000000        0x0
 .data          0x00000000        0x0 /Applications/microchip/xc32/v2.10/bin/bin/../../lib/gcc/pic32mx/4.8.3/../../../../pic32mx/lib/liblega-c.a(_doprnt_cdnopsuxX.eo)

.bss%z100       0x00000000        0x0
 .bss           0x00000000        0x0 /Applications/microchip/xc32/v2.10/bin/bin/../../lib/gcc/pic32mx/4.8.3/../../../../pic32mx/lib/liblega-c.a(errno.o)

.data%z101      0x00000000        0x0
 .data          0x00000000        0x0 /Applications/microchip/xc32/v2.10/bin/bin/../../lib/gcc/pic32mx/4.8.3/../../../../pic32mx/lib/liblega-c.a(errno.o)

.bss%z102       0x00000000        0x0
 .bss           0x00000000        0x0 /Applications/microchip/xc32/v2.10/bin/bin/../../lib/gcc/pic32mx/4.8.3/../../../../pic32mx/lib/liblega-c.a(fassert.o)

.data%z103      0x00000000        0x0
 .data          0x00000000        0x0 /Applications/microchip/xc32/v2.10/bin/bin/../../lib/gcc/pic32mx/4.8.3/../../../../pic32mx/lib/liblega-c.a(fassert.o)

.data%z104      0x00000000        0x0
 .data          0x00000000        0x0 /Applications/microchip/xc32/v2.10/bin/bin/../../lib/gcc/pic32mx/4.8.3/../../../../pic32mx/lib/liblega-c.a(stubs.o)

.bss%z105       0x00000000        0x0
 .bss           0x00000000        0x0 /Applications/microchip/xc32/v2.10/bin/bin/../../lib/gcc/pic32mx/4.8.3/../../../../pic32mx/lib/liblega-c.a(sscanf_cdnopuxX.eo)

.data%z106      0x00000000        0x0
 .data          0x00000000        0x0 /Applications/microchip/xc32/v2.10/bin/bin/../../lib/gcc/pic32mx/4.8.3/../../../../pic32mx/lib/liblega-c.a(sscanf_cdnopuxX.eo)

.bss%z107       0x00000000        0x0
 .bss           0x00000000        0x0 /Applications/microchip/xc32/v2.10/bin/bin/../../lib/gcc/pic32mx/4.8.3/../../../../pic32mx/lib/liblega-c.a(sprintf_cdnopsuxX.eo)

.data%z108      0x00000000        0x0
 .data          0x00000000        0x0 /Applications/microchip/xc32/v2.10/bin/bin/../../lib/gcc/pic32mx/4.8.3/../../../../pic32mx/lib/liblega-c.a(sprintf_cdnopsuxX.eo)

.bss%z109       0x00000000        0x0
 .bss           0x00000000        0x0 /Applications/microchip/xc32/v2.10/bin/bin/../../lib/gcc/pic32mx/4.8.3/../../../../pic32mx/lib/liblega-c.a(printf_cdnopuxX.eo)

.data%z110      0x00000000        0x0
 .data          0x00000000        0x0 /Applications/microchip/xc32/v2.10/bin/bin/../../lib/gcc/pic32mx/4.8.3/../../../../pic32mx/lib/liblega-c.a(printf_cdnopuxX.eo)

.bss%z111       0x00000000        0x0
 .bss           0x00000000        0x0 /Applications/microchip/xc32/v2.10/bin/bin/../../lib/gcc/pic32mx/4.8.3/../../../../pic32mx/lib/liblega-c.a(strtol.o)

.data%z112      0x00000000        0x0
 .data          0x00000000        0x0 /Applications/microchip/xc32/v2.10/bin/bin/../../lib/gcc/pic32mx/4.8.3/../../../../pic32mx/lib/liblega-c.a(strtol.o)

.bss%z113       0x00000000        0x0
 .bss           0x00000000        0x0 /Applications/microchip/xc32/v2.10/bin/bin/../../lib/gcc/pic32mx/4.8.3/../../../../pic32mx/lib/liblega-c.a(rand.o)

.bss%z114       0x00000000        0x0
 .bss           0x00000000        0x0 /Applications/microchip/xc32/v2.10/bin/bin/../../lib/gcc/pic32mx/4.8.3/../../../../pic32mx/lib/liblega-c.a(ctypef.o)

.data%z115      0x00000000        0x0
 .data          0x00000000        0x0 /Applications/microchip/xc32/v2.10/bin/bin/../../lib/gcc/pic32mx/4.8.3/../../../../pic32mx/lib/liblega-c.a(ctypef.o)

.bss%z116       0x00000000        0x0
 .bss           0x00000000        0x0 /Applications/microchip/xc32/v2.10/bin/bin/../../lib/gcc/pic32mx/4.8.3/../../../../pic32mx/lib/liblega-c.a(ctype.o)

.data%z117      0x00000000        0x0
 .data          0x00000000        0x0 /Applications/microchip/xc32/v2.10/bin/bin/../../lib/gcc/pic32mx/4.8.3/../../../../pic32mx/lib/liblega-c.a(ctype.o)

.bss%z118       0x00000000        0x0
 .bss           0x00000000        0x0 /Applications/microchip/xc32/v2.10/bin/bin/../../lib/gcc/pic32mx/4.8.3/../../../../pic32mx/lib/liblega-c.a(memmove.o)

.data%z119      0x00000000        0x0
 .data          0x00000000        0x0 /Applications/microchip/xc32/v2.10/bin/bin/../../lib/gcc/pic32mx/4.8.3/../../../../pic32mx/lib/liblega-c.a(memmove.o)

.bss%z120       0x00000000        0x0
 .bss           0x00000000        0x0 /Applications/microchip/xc32/v2.10/bin/bin/../../lib/gcc/pic32mx/4.8.3/../../../../pic32mx/lib/liblega-c.a(strchr.o)

.data%z121      0x00000000        0x0
 .data          0x00000000        0x0 /Applications/microchip/xc32/v2.10/bin/bin/../../lib/gcc/pic32mx/4.8.3/../../../../pic32mx/lib/liblega-c.a(strchr.o)

.bss%z122       0x00000000        0x0
 .bss           0x00000000        0x0 /Applications/microchip/xc32/v2.10/bin/bin/../../lib/gcc/pic32mx/4.8.3/../../../../pic32mx/lib/liblega-c.a(strncpy.o)

.data%z123      0x00000000        0x0
 .data          0x00000000        0x0 /Applications/microchip/xc32/v2.10/bin/bin/../../lib/gcc/pic32mx/4.8.3/../../../../pic32mx/lib/liblega-c.a(strncpy.o)

.bss%z124       0x00000000        0x0
 .bss           0x00000000        0x0 /Applications/microchip/xc32/v2.10/bin/bin/../../lib/gcc/pic32mx/4.8.3/../../../../pic32mx/lib/liblega-c.a(strncmp.o)

.data%z125      0x00000000        0x0
 .data          0x00000000        0x0 /Applications/microchip/xc32/v2.10/bin/bin/../../lib/gcc/pic32mx/4.8.3/../../../../pic32mx/lib/liblega-c.a(strncmp.o)

.bss%z126       0x00000000        0x0
 .bss           0x00000000        0x0 /Applications/microchip/xc32/v2.10/bin/bin/../../lib/gcc/pic32mx/4.8.3/../../../../pic32mx/lib/liblega-c.a(strcat.o)

.data%z127      0x00000000        0x0
 .data          0x00000000        0x0 /Applications/microchip/xc32/v2.10/bin/bin/../../lib/gcc/pic32mx/4.8.3/../../../../pic32mx/lib/liblega-c.a(strcat.o)

.bss%z128       0x00000000        0x0
 .bss           0x00000000        0x0 /Applications/microchip/xc32/v2.10/bin/bin/../../lib/gcc/pic32mx/4.8.3/../../../../pic32mx/lib/libpic32.a(defaultinterrupt.o)

.data%z129      0x00000000        0x0
 .data          0x00000000        0x0 /Applications/microchip/xc32/v2.10/bin/bin/../../lib/gcc/pic32mx/4.8.3/../../../../pic32mx/lib/libpic32.a(defaultinterrupt.o)

.bss%z130       0x00000000        0x0
 .bss           0x00000000        0x0 /Applications/microchip/xc32/v2.10/bin/bin/../../lib/gcc/pic32mx/4.8.3/../../../../pic32mx/lib/libpic32.a(default-general-exception-handler.o)

.data%z131      0x00000000        0x0
 .data          0x00000000        0x0 /Applications/microchip/xc32/v2.10/bin/bin/../../lib/gcc/pic32mx/4.8.3/../../../../pic32mx/lib/libpic32.a(default-general-exception-handler.o)

.bss%z132       0x00000000        0x0
 .bss           0x00000000        0x0 /Applications/microchip/xc32/v2.10/bin/bin/../../lib/gcc/pic32mx/4.8.3/../../../../pic32mx/lib/libpic32.a(vector45.o)

.data%z133      0x00000000        0x0
 .data          0x00000000        0x0 /Applications/microchip/xc32/v2.10/bin/bin/../../lib/gcc/pic32mx/4.8.3/../../../../pic32mx/lib/libpic32.a(vector45.o)

.bss%z134       0x00000000        0x0
 .bss           0x00000000        0x0 /Applications/microchip/xc32/v2.10/bin/bin/../../lib/gcc/pic32mx/4.8.3/../../../../pic32mx/lib/libpic32.a(vector44.o)

.data%z135      0x00000000        0x0
 .data          0x00000000        0x0 /Applications/microchip/xc32/v2.10/bin/bin/../../lib/gcc/pic32mx/4.8.3/../../../../pic32mx/lib/libpic32.a(vector44.o)

.bss%z136       0x00000000        0x0
 .bss           0x00000000        0x0 /Applications/microchip/xc32/v2.10/bin/bin/../../lib/gcc/pic32mx/4.8.3/../../../../pic32mx/lib/libpic32.a(vector43.o)

.data%z137      0x00000000        0x0
 .data          0x00000000        0x0 /Applications/microchip/xc32/v2.10/bin/bin/../../lib/gcc/pic32mx/4.8.3/../../../../pic32mx/lib/libpic32.a(vector43.o)

.bss%z138       0x00000000        0x0
 .bss           0x00000000        0x0 /Applications/microchip/xc32/v2.10/bin/bin/../../lib/gcc/pic32mx/4.8.3/../../../../pic32mx/lib/libpic32.a(vector42.o)

.data%z139      0x00000000        0x0
 .data          0x00000000        0x0 /Applications/microchip/xc32/v2.10/bin/bin/../../lib/gcc/pic32mx/4.8.3/../../../../pic32mx/lib/libpic32.a(vector42.o)

.bss%z140       0x00000000        0x0
 .bss           0x00000000        0x0 /Applications/microchip/xc32/v2.10/bin/bin/../../lib/gcc/pic32mx/4.8.3/../../../../pic32mx/lib/libpic32.a(vector41.o)

.data%z141      0x00000000        0x0
 .data          0x00000000        0x0 /Applications/microchip/xc32/v2.10/bin/bin/../../lib/gcc/pic32mx/4.8.3/../../../../pic32mx/lib/libpic32.a(vector41.o)

.bss%z142       0x00000000        0x0
 .bss           0x00000000        0x0 /Applications/microchip/xc32/v2.10/bin/bin/../../lib/gcc/pic32mx/4.8.3/../../../../pic32mx/lib/libpic32.a(vector40.o)

.data%z143      0x00000000        0x0
 .data          0x00000000        0x0 /Applications/microchip/xc32/v2.10/bin/bin/../../lib/gcc/pic32mx/4.8.3/../../../../pic32mx/lib/libpic32.a(vector40.o)

.bss%z144       0x00000000        0x0
 .bss           0x00000000        0x0 /Applications/microchip/xc32/v2.10/bin/bin/../../lib/gcc/pic32mx/4.8.3/../../../../pic32mx/lib/libpic32.a(vector39.o)

.data%z145      0x00000000        0x0
 .data          0x00000000        0x0 /Applications/microchip/xc32/v2.10/bin/bin/../../lib/gcc/pic32mx/4.8.3/../../../../pic32mx/lib/libpic32.a(vector39.o)

.bss%z146       0x00000000        0x0
 .bss           0x00000000        0x0 /Applications/microchip/xc32/v2.10/bin/bin/../../lib/gcc/pic32mx/4.8.3/../../../../pic32mx/lib/libpic32.a(vector38.o)

.data%z147      0x00000000        0x0
 .data          0x00000000        0x0 /Applications/microchip/xc32/v2.10/bin/bin/../../lib/gcc/pic32mx/4.8.3/../../../../pic32mx/lib/libpic32.a(vector38.o)

.bss%z148       0x00000000        0x0
 .bss           0x00000000        0x0 /Applications/microchip/xc32/v2.10/bin/bin/../../lib/gcc/pic32mx/4.8.3/../../../../pic32mx/lib/libpic32.a(vector37.o)

.data%z149      0x00000000        0x0
 .data          0x00000000        0x0 /Applications/microchip/xc32/v2.10/bin/bin/../../lib/gcc/pic32mx/4.8.3/../../../../pic32mx/lib/libpic32.a(vector37.o)

.bss%z150       0x00000000        0x0
 .bss           0x00000000        0x0 /Applications/microchip/xc32/v2.10/bin/bin/../../lib/gcc/pic32mx/4.8.3/../../../../pic32mx/lib/libpic32.a(vector36.o)

.data%z151      0x00000000        0x0
 .data          0x00000000        0x0 /Applications/microchip/xc32/v2.10/bin/bin/../../lib/gcc/pic32mx/4.8.3/../../../../pic32mx/lib/libpic32.a(vector36.o)

.bss%z152       0x00000000        0x0
 .bss           0x00000000        0x0 /Applications/microchip/xc32/v2.10/bin/bin/../../lib/gcc/pic32mx/4.8.3/../../../../pic32mx/lib/libpic32.a(vector35.o)

.data%z153      0x00000000        0x0
 .data          0x00000000        0x0 /Applications/microchip/xc32/v2.10/bin/bin/../../lib/gcc/pic32mx/4.8.3/../../../../pic32mx/lib/libpic32.a(vector35.o)

.bss%z154       0x00000000        0x0
 .bss           0x00000000        0x0 /Applications/microchip/xc32/v2.10/bin/bin/../../lib/gcc/pic32mx/4.8.3/../../../../pic32mx/lib/libpic32.a(vector34.o)

.data%z155      0x00000000        0x0
 .data          0x00000000        0x0 /Applications/microchip/xc32/v2.10/bin/bin/../../lib/gcc/pic32mx/4.8.3/../../../../pic32mx/lib/libpic32.a(vector34.o)

.bss%z156       0x00000000        0x0
 .bss           0x00000000        0x0 /Applications/microchip/xc32/v2.10/bin/bin/../../lib/gcc/pic32mx/4.8.3/../../../../pic32mx/lib/libpic32.a(vector33.o)

.data%z157      0x00000000        0x0
 .data          0x00000000        0x0 /Applications/microchip/xc32/v2.10/bin/bin/../../lib/gcc/pic32mx/4.8.3/../../../../pic32mx/lib/libpic32.a(vector33.o)

.bss%z158       0x00000000        0x0
 .bss           0x00000000        0x0 /Applications/microchip/xc32/v2.10/bin/bin/../../lib/gcc/pic32mx/4.8.3/../../../../pic32mx/lib/libpic32.a(vector32.o)

.data%z159      0x00000000        0x0
 .data          0x00000000        0x0 /Applications/microchip/xc32/v2.10/bin/bin/../../lib/gcc/pic32mx/4.8.3/../../../../pic32mx/lib/libpic32.a(vector32.o)

.bss%z160       0x00000000        0x0
 .bss           0x00000000        0x0 /Applications/microchip/xc32/v2.10/bin/bin/../../lib/gcc/pic32mx/4.8.3/../../../../pic32mx/lib/libpic32.a(vector31.o)

.data%z161      0x00000000        0x0
 .data          0x00000000        0x0 /Applications/microchip/xc32/v2.10/bin/bin/../../lib/gcc/pic32mx/4.8.3/../../../../pic32mx/lib/libpic32.a(vector31.o)

.bss%z162       0x00000000        0x0
 .bss           0x00000000        0x0 /Applications/microchip/xc32/v2.10/bin/bin/../../lib/gcc/pic32mx/4.8.3/../../../../pic32mx/lib/libpic32.a(vector30.o)

.data%z163      0x00000000        0x0
 .data          0x00000000        0x0 /Applications/microchip/xc32/v2.10/bin/bin/../../lib/gcc/pic32mx/4.8.3/../../../../pic32mx/lib/libpic32.a(vector30.o)

.bss%z164       0x00000000        0x0
 .bss           0x00000000        0x0 /Applications/microchip/xc32/v2.10/bin/bin/../../lib/gcc/pic32mx/4.8.3/../../../../pic32mx/lib/libpic32.a(vector29.o)

.data%z165      0x00000000        0x0
 .data          0x00000000        0x0 /Applications/microchip/xc32/v2.10/bin/bin/../../lib/gcc/pic32mx/4.8.3/../../../../pic32mx/lib/libpic32.a(vector29.o)

.bss%z166       0x00000000        0x0
 .bss           0x00000000        0x0 /Applications/microchip/xc32/v2.10/bin/bin/../../lib/gcc/pic32mx/4.8.3/../../../../pic32mx/lib/libpic32.a(vector28.o)

.data%z167      0x00000000        0x0
 .data          0x00000000        0x0 /Applications/microchip/xc32/v2.10/bin/bin/../../lib/gcc/pic32mx/4.8.3/../../../../pic32mx/lib/libpic32.a(vector28.o)

.bss%z168       0x00000000        0x0
 .bss           0x00000000        0x0 /Applications/microchip/xc32/v2.10/bin/bin/../../lib/gcc/pic32mx/4.8.3/../../../../pic32mx/lib/libpic32.a(vector27.o)

.data%z169      0x00000000        0x0
 .data          0x00000000        0x0 /Applications/microchip/xc32/v2.10/bin/bin/../../lib/gcc/pic32mx/4.8.3/../../../../pic32mx/lib/libpic32.a(vector27.o)

.bss%z170       0x00000000        0x0
 .bss           0x00000000        0x0 /Applications/microchip/xc32/v2.10/bin/bin/../../lib/gcc/pic32mx/4.8.3/../../../../pic32mx/lib/libpic32.a(vector26.o)

.data%z171      0x00000000        0x0
 .data          0x00000000        0x0 /Applications/microchip/xc32/v2.10/bin/bin/../../lib/gcc/pic32mx/4.8.3/../../../../pic32mx/lib/libpic32.a(vector26.o)

.bss%z172       0x00000000        0x0
 .bss           0x00000000        0x0 /Applications/microchip/xc32/v2.10/bin/bin/../../lib/gcc/pic32mx/4.8.3/../../../../pic32mx/lib/libpic32.a(vector25.o)

.data%z173      0x00000000        0x0
 .data          0x00000000        0x0 /Applications/microchip/xc32/v2.10/bin/bin/../../lib/gcc/pic32mx/4.8.3/../../../../pic32mx/lib/libpic32.a(vector25.o)

.bss%z174       0x00000000        0x0
 .bss           0x00000000        0x0 /Applications/microchip/xc32/v2.10/bin/bin/../../lib/gcc/pic32mx/4.8.3/../../../../pic32mx/lib/libpic32.a(vector24.o)

.data%z175      0x00000000        0x0
 .data          0x00000000        0x0 /Applications/microchip/xc32/v2.10/bin/bin/../../lib/gcc/pic32mx/4.8.3/../../../../pic32mx/lib/libpic32.a(vector24.o)

.bss%z176       0x00000000        0x0
 .bss           0x00000000        0x0 /Applications/microchip/xc32/v2.10/bin/bin/../../lib/gcc/pic32mx/4.8.3/../../../../pic32mx/lib/libpic32.a(vector23.o)

.data%z177      0x00000000        0x0
 .data          0x00000000        0x0 /Applications/microchip/xc32/v2.10/bin/bin/../../lib/gcc/pic32mx/4.8.3/../../../../pic32mx/lib/libpic32.a(vector23.o)

.bss%z178       0x00000000        0x0
 .bss           0x00000000        0x0 /Applications/microchip/xc32/v2.10/bin/bin/../../lib/gcc/pic32mx/4.8.3/../../../../pic32mx/lib/libpic32.a(vector22.o)

.data%z179      0x00000000        0x0
 .data          0x00000000        0x0 /Applications/microchip/xc32/v2.10/bin/bin/../../lib/gcc/pic32mx/4.8.3/../../../../pic32mx/lib/libpic32.a(vector22.o)

.bss%z180       0x00000000        0x0
 .bss           0x00000000        0x0 /Applications/microchip/xc32/v2.10/bin/bin/../../lib/gcc/pic32mx/4.8.3/../../../../pic32mx/lib/libpic32.a(vector21.o)

.data%z181      0x00000000        0x0
 .data          0x00000000        0x0 /Applications/microchip/xc32/v2.10/bin/bin/../../lib/gcc/pic32mx/4.8.3/../../../../pic32mx/lib/libpic32.a(vector21.o)

.bss%z182       0x00000000        0x0
 .bss           0x00000000        0x0 /Applications/microchip/xc32/v2.10/bin/bin/../../lib/gcc/pic32mx/4.8.3/../../../../pic32mx/lib/libpic32.a(vector19.o)

.data%z183      0x00000000        0x0
 .data          0x00000000        0x0 /Applications/microchip/xc32/v2.10/bin/bin/../../lib/gcc/pic32mx/4.8.3/../../../../pic32mx/lib/libpic32.a(vector19.o)

.bss%z184       0x00000000        0x0
 .bss           0x00000000        0x0 /Applications/microchip/xc32/v2.10/bin/bin/../../lib/gcc/pic32mx/4.8.3/../../../../pic32mx/lib/libpic32.a(vector18.o)

.data%z185      0x00000000        0x0
 .data          0x00000000        0x0 /Applications/microchip/xc32/v2.10/bin/bin/../../lib/gcc/pic32mx/4.8.3/../../../../pic32mx/lib/libpic32.a(vector18.o)

.bss%z186       0x00000000        0x0
 .bss           0x00000000        0x0 /Applications/microchip/xc32/v2.10/bin/bin/../../lib/gcc/pic32mx/4.8.3/../../../../pic32mx/lib/libpic32.a(vector17.o)

.data%z187      0x00000000        0x0
 .data          0x00000000        0x0 /Applications/microchip/xc32/v2.10/bin/bin/../../lib/gcc/pic32mx/4.8.3/../../../../pic32mx/lib/libpic32.a(vector17.o)

.bss%z188       0x00000000        0x0
 .bss           0x00000000        0x0 /Applications/microchip/xc32/v2.10/bin/bin/../../lib/gcc/pic32mx/4.8.3/../../../../pic32mx/lib/libpic32.a(vector15.o)

.data%z189      0x00000000        0x0
 .data          0x00000000        0x0 /Applications/microchip/xc32/v2.10/bin/bin/../../lib/gcc/pic32mx/4.8.3/../../../../pic32mx/lib/libpic32.a(vector15.o)

.bss%z190       0x00000000        0x0
 .bss           0x00000000        0x0 /Applications/microchip/xc32/v2.10/bin/bin/../../lib/gcc/pic32mx/4.8.3/../../../../pic32mx/lib/libpic32.a(vector14.o)

.data%z191      0x00000000        0x0
 .data          0x00000000        0x0 /Applications/microchip/xc32/v2.10/bin/bin/../../lib/gcc/pic32mx/4.8.3/../../../../pic32mx/lib/libpic32.a(vector14.o)

.bss%z192       0x00000000        0x0
 .bss           0x00000000        0x0 /Applications/microchip/xc32/v2.10/bin/bin/../../lib/gcc/pic32mx/4.8.3/../../../../pic32mx/lib/libpic32.a(vector13.o)

.data%z193      0x00000000        0x0
 .data          0x00000000        0x0 /Applications/microchip/xc32/v2.10/bin/bin/../../lib/gcc/pic32mx/4.8.3/../../../../pic32mx/lib/libpic32.a(vector13.o)

.bss%z194       0x00000000        0x0
 .bss           0x00000000        0x0 /Applications/microchip/xc32/v2.10/bin/bin/../../lib/gcc/pic32mx/4.8.3/../../../../pic32mx/lib/libpic32.a(vector10.o)

.data%z195      0x00000000        0x0
 .data          0x00000000        0x0 /Applications/microchip/xc32/v2.10/bin/bin/../../lib/gcc/pic32mx/4.8.3/../../../../pic32mx/lib/libpic32.a(vector10.o)

.bss%z196       0x00000000        0x0
 .bss           0x00000000        0x0 /Applications/microchip/xc32/v2.10/bin/bin/../../lib/gcc/pic32mx/4.8.3/../../../../pic32mx/lib/libpic32.a(vector9.o)

.data%z197      0x00000000        0x0
 .data          0x00000000        0x0 /Applications/microchip/xc32/v2.10/bin/bin/../../lib/gcc/pic32mx/4.8.3/../../../../pic32mx/lib/libpic32.a(vector9.o)

.bss%z198       0x00000000        0x0
 .bss           0x00000000        0x0 /Applications/microchip/xc32/v2.10/bin/bin/../../lib/gcc/pic32mx/4.8.3/../../../../pic32mx/lib/libpic32.a(vector7.o)

.data%z199      0x00000000        0x0
 .data          0x00000000        0x0 /Applications/microchip/xc32/v2.10/bin/bin/../../lib/gcc/pic32mx/4.8.3/../../../../pic32mx/lib/libpic32.a(vector7.o)

.bss%z200       0x00000000        0x0
 .bss           0x00000000        0x0 /Applications/microchip/xc32/v2.10/bin/bin/../../lib/gcc/pic32mx/4.8.3/../../../../pic32mx/lib/libpic32.a(vector6.o)

.data%z201      0x00000000        0x0
 .data          0x00000000        0x0 /Applications/microchip/xc32/v2.10/bin/bin/../../lib/gcc/pic32mx/4.8.3/../../../../pic32mx/lib/libpic32.a(vector6.o)

.bss%z202       0x00000000        0x0
 .bss           0x00000000        0x0 /Applications/microchip/xc32/v2.10/bin/bin/../../lib/gcc/pic32mx/4.8.3/../../../../pic32mx/lib/libpic32.a(vector5.o)

.data%z203      0x00000000        0x0
 .data          0x00000000        0x0 /Applications/microchip/xc32/v2.10/bin/bin/../../lib/gcc/pic32mx/4.8.3/../../../../pic32mx/lib/libpic32.a(vector5.o)

.bss%z204       0x00000000        0x0
 .bss           0x00000000        0x0 /Applications/microchip/xc32/v2.10/bin/bin/../../lib/gcc/pic32mx/4.8.3/../../../../pic32mx/lib/libpic32.a(vector3.o)

.data%z205      0x00000000        0x0
 .data          0x00000000        0x0 /Applications/microchip/xc32/v2.10/bin/bin/../../lib/gcc/pic32mx/4.8.3/../../../../pic32mx/lib/libpic32.a(vector3.o)

.bss%z206       0x00000000        0x0
 .bss           0x00000000        0x0 /Applications/microchip/xc32/v2.10/bin/bin/../../lib/gcc/pic32mx/4.8.3/../../../../pic32mx/lib/libpic32.a(vector2.o)

.data%z207      0x00000000        0x0
 .data          0x00000000        0x0 /Applications/microchip/xc32/v2.10/bin/bin/../../lib/gcc/pic32mx/4.8.3/../../../../pic32mx/lib/libpic32.a(vector2.o)

.bss%z208       0x00000000        0x0
 .bss           0x00000000        0x0 /Applications/microchip/xc32/v2.10/bin/bin/../../lib/gcc/pic32mx/4.8.3/../../../../pic32mx/lib/libpic32.a(vector1.o)

.data%z209      0x00000000        0x0
 .data          0x00000000        0x0 /Applications/microchip/xc32/v2.10/bin/bin/../../lib/gcc/pic32mx/4.8.3/../../../../pic32mx/lib/libpic32.a(vector1.o)

.bss%z210       0x00000000        0x0
 .bss           0x00000000        0x0 /Applications/microchip/xc32/v2.10/bin/bin/../../lib/gcc/pic32mx/4.8.3/../../../../pic32mx/lib/libpic32.a(vector0.o)

.data%z211      0x00000000        0x0
 .data          0x00000000        0x0 /Applications/microchip/xc32/v2.10/bin/bin/../../lib/gcc/pic32mx/4.8.3/../../../../pic32mx/lib/libpic32.a(vector0.o)

.bss%z212       0x00000000        0x0
 .bss           0x00000000        0x0 /Applications/microchip/xc32/v2.10/bin/bin/../../lib/gcc/pic32mx/4.8.3/../../../../pic32mx/lib/libpic32.a(general-exception.o)

.data%z213      0x00000000        0x0
 .data          0x00000000        0x0 /Applications/microchip/xc32/v2.10/bin/bin/../../lib/gcc/pic32mx/4.8.3/../../../../pic32mx/lib/libpic32.a(general-exception.o)

.bss%z214       0x00000000        0x0
 .bss           0x00000000        0x0 /Applications/microchip/xc32/v2.10/bin/bin/../../lib/gcc/pic32mx/4.8.3/../../../../pic32mx/lib/libpic32.a(pic32_data_init.o)

.data%z215      0x00000000        0x0
 .data          0x00000000        0x0 /Applications/microchip/xc32/v2.10/bin/bin/../../lib/gcc/pic32mx/4.8.3/../../../../pic32mx/lib/libpic32.a(pic32_data_init.o)

.bss%z216       0x00000000        0x0
 .bss           0x00000000        0x0 /Applications/microchip/xc32/v2.10/bin/bin/../../lib/gcc/pic32mx/4.8.3/../../../../pic32mx/lib/libpic32.a(default-nmi-handler.o)

.data%z217      0x00000000        0x0
 .data          0x00000000        0x0 /Applications/microchip/xc32/v2.10/bin/bin/../../lib/gcc/pic32mx/4.8.3/../../../../pic32mx/lib/libpic32.a(default-nmi-handler.o)

.bss%z218       0x00000000        0x0
 .bss           0x00000000        0x0 /Applications/microchip/xc32/v2.10/bin/bin/../../lib/gcc/pic32mx/4.8.3/../../../../pic32mx/lib/libpic32.a(default-on-bootstrap.o)

.data%z219      0x00000000        0x0
 .data          0x00000000        0x0 /Applications/microchip/xc32/v2.10/bin/bin/../../lib/gcc/pic32mx/4.8.3/../../../../pic32mx/lib/libpic32.a(default-on-bootstrap.o)

.bss%z220       0x00000000        0x0
 .bss           0x00000000        0x0 /Applications/microchip/xc32/v2.10/bin/bin/../../lib/gcc/pic32mx/4.8.3/../../../../pic32mx/lib/libpic32.a(default-on-reset.o)

.data%z221      0x00000000        0x0
 .data          0x00000000        0x0 /Applications/microchip/xc32/v2.10/bin/bin/../../lib/gcc/pic32mx/4.8.3/../../../../pic32mx/lib/libpic32.a(default-on-reset.o)

.bss%z222       0x00000000        0x0
 .bss           0x00000000        0x0 /Applications/microchip/xc32/v2.10/bin/bin/../../lib/gcc/pic32mx/4.8.3/../../../../pic32mx/lib/libpic32.a(default-bootstrap-exception-handler.o)

.data%z223      0x00000000        0x0
 .data          0x00000000        0x0 /Applications/microchip/xc32/v2.10/bin/bin/../../lib/gcc/pic32mx/4.8.3/../../../../pic32mx/lib/libpic32.a(default-bootstrap-exception-handler.o)

.bss%z224       0x00000000        0x0
 .bss           0x00000000        0x0 /Applications/microchip/xc32/v2.10/bin/bin/../../lib/gcc/pic32mx/4.8.3/../../../../pic32mx/lib/libpic32.a(strlen.o)

.data%z225      0x00000000        0x0
 .data          0x00000000        0x0 /Applications/microchip/xc32/v2.10/bin/bin/../../lib/gcc/pic32mx/4.8.3/../../../../pic32mx/lib/libpic32.a(strlen.o)

.bss%z226       0x00000000        0x0
 .bss           0x00000000        0x0 /Applications/microchip/xc32/v2.10/bin/bin/../../lib/gcc/pic32mx/4.8.3/../../../../pic32mx/lib/libpic32.a(strcpy.o)

.data%z227      0x00000000        0x0
 .data          0x00000000        0x0 /Applications/microchip/xc32/v2.10/bin/bin/../../lib/gcc/pic32mx/4.8.3/../../../../pic32mx/lib/libpic32.a(strcpy.o)

.bss%z228       0x00000000        0x0
 .bss           0x00000000        0x0 /Applications/microchip/xc32/v2.10/bin/bin/../../lib/gcc/pic32mx/4.8.3/../../../../pic32mx/lib/libpic32.a(strcmp.o)

.data%z229      0x00000000        0x0
 .data          0x00000000        0x0 /Applications/microchip/xc32/v2.10/bin/bin/../../lib/gcc/pic32mx/4.8.3/../../../../pic32mx/lib/libpic32.a(strcmp.o)

.bss%z230       0x00000000        0x0
 .bss           0x00000000        0x0 /Applications/microchip/xc32/v2.10/bin/bin/../../lib/gcc/pic32mx/4.8.3/../../../../pic32mx/lib/libpic32.a(memset.o)

.data%z231      0x00000000        0x0
 .data          0x00000000        0x0 /Applications/microchip/xc32/v2.10/bin/bin/../../lib/gcc/pic32mx/4.8.3/../../../../pic32mx/lib/libpic32.a(memset.o)

.bss%z232       0x00000000        0x0
 .bss           0x00000000        0x0 /Applications/microchip/xc32/v2.10/bin/bin/../../lib/gcc/pic32mx/4.8.3/../../../../pic32mx/lib/libpic32.a(memcpy.o)

.data%z233      0x00000000        0x0
 .data          0x00000000        0x0 /Applications/microchip/xc32/v2.10/bin/bin/../../lib/gcc/pic32mx/4.8.3/../../../../pic32mx/lib/libpic32.a(memcpy.o)

.bss%z234       0x00000000        0x0
 .bss           0x00000000        0x0 /Applications/microchip/xc32/v2.10/bin/bin/../../lib/gcc/pic32mx/4.8.3/../../../../pic32mx/lib/libpic32.a(setjmp.o)

.data%z235      0x00000000        0x0
 .data          0x00000000        0x0 /Applications/microchip/xc32/v2.10/bin/bin/../../lib/gcc/pic32mx/4.8.3/../../../../pic32mx/lib/libpic32.a(setjmp.o)

.bss%z236       0x00000000        0x0
 .bss           0x00000000        0x0 /Applications/microchip/xc32/v2.10/bin/bin/../../lib/gcc/pic32mx/4.8.3/libgcc.a(_umoddi3.o)

.data%z237      0x00000000        0x0
 .data          0x00000000        0x0 /Applications/microchip/xc32/v2.10/bin/bin/../../lib/gcc/pic32mx/4.8.3/libgcc.a(_umoddi3.o)

.bss%z238       0x00000000        0x0
 .bss           0x00000000        0x0 /Applications/microchip/xc32/v2.10/bin/bin/../../lib/gcc/pic32mx/4.8.3/../../../../pic32mx/lib/libmchp_peripheral_32MX370F512H.a(int_enable_interrupts_lib.o)

.data%z239      0x00000000        0x0
 .data          0x00000000        0x0 /Applications/microchip/xc32/v2.10/bin/bin/../../lib/gcc/pic32mx/4.8.3/../../../../pic32mx/lib/libmchp_peripheral_32MX370F512H.a(int_enable_interrupts_lib.o)

.bss%z240       0x00000000        0x0
 .bss           0x00000000        0x0 /Applications/microchip/xc32/v2.10/bin/bin/../../lib/gcc/pic32mx/4.8.3/../../../../pic32mx/lib/libmchp_peripheral_32MX370F512H.a(int_enable_mv_int_lib.o)

.data%z241      0x00000000        0x0
 .data          0x00000000        0x0 /Applications/microchip/xc32/v2.10/bin/bin/../../lib/gcc/pic32mx/4.8.3/../../../../pic32mx/lib/libmchp_peripheral_32MX370F512H.a(int_enable_mv_int_lib.o)

.bss%z242       0x00000000        0x0
 .bss           0x00000000        0x0 /Applications/microchip/xc32/v2.10/bin/bin/../../lib/gcc/pic32mx/4.8.3/../../../../pic32mx/lib/libmchp_peripheral_32MX370F512H.a(int_restore_interrupts_lib.o)

.data%z243      0x00000000        0x0
 .data          0x00000000        0x0 /Applications/microchip/xc32/v2.10/bin/bin/../../lib/gcc/pic32mx/4.8.3/../../../../pic32mx/lib/libmchp_peripheral_32MX370F512H.a(int_restore_interrupts_lib.o)

.bss%z244       0x00000000        0x0
 .bss           0x00000000        0x0 /Applications/microchip/xc32/v2.10/bin/bin/../../lib/gcc/pic32mx/4.8.3/../../../../pic32mx/lib/libmchp_peripheral_32MX370F512H.a(int_disable_interrupts_lib.o)

.data%z245      0x00000000        0x0
 .data          0x00000000        0x0 /Applications/microchip/xc32/v2.10/bin/bin/../../lib/gcc/pic32mx/4.8.3/../../../../pic32mx/lib/libmchp_peripheral_32MX370F512H.a(int_disable_interrupts_lib.o)

.bss%z246       0x00000000        0x0
 .bss           0x00000000        0x0 /Applications/microchip/xc32/v2.10/bin/bin/../../lib/gcc/pic32mx/4.8.3/../../../../pic32mx/lib/libmchp_peripheral_32MX370F512H.a(pcache.o)

.data%z247      0x00000000        0x0
 .data          0x00000000        0x0 /Applications/microchip/xc32/v2.10/bin/bin/../../lib/gcc/pic32mx/4.8.3/../../../../pic32mx/lib/libmchp_peripheral_32MX370F512H.a(pcache.o)

.bss%z248       0x00000000        0x0
 .bss           0x00000000        0x0 /Applications/microchip/xc32/v2.10/bin/bin/../../lib/gcc/pic32mx/4.8.3/../../../../pic32mx/lib/./proc/32MX370F512H/processor.o

.data%z249      0x00000000        0x0
 .data          0x00000000        0x0 /Applications/microchip/xc32/v2.10/bin/bin/../../lib/gcc/pic32mx/4.8.3/../../../../pic32mx/lib/./proc/32MX370F512H/processor.o

.bss%z250       0x00000000        0x0
 .bss           0x00000000        0x0 /Applications/microchip/xc32/v2.10/bin/bin/../../lib/gcc/pic32mx/4.8.3/../../../../pic32mx/lib/pic32_software_reset.o

.data%z251      0x00000000        0x0
 .data          0x00000000        0x0 /Applications/microchip/xc32/v2.10/bin/bin/../../lib/gcc/pic32mx/4.8.3/../../../../pic32mx/lib/pic32_software_reset.o

.bss%z252       0x00000000        0x0
 .bss           0x00000000        0x0 /Applications/microchip/xc32/v2.10/bin/bin/../../lib/gcc/pic32mx/4.8.3/../../../../pic32mx/lib/./proc/32MX370F512H/default_isr_vectors.o

.data%z253      0x00000000        0x0
 .data          0x00000000        0x0 /Applications/microchip/xc32/v2.10/bin/bin/../../lib/gcc/pic32mx/4.8.3/../../../../pic32mx/lib/./proc/32MX370F512H/default_isr_vectors.o

.bss%z254       0x00000000        0x0
 .bss           0x00000000        0x0 build/default/production/src/qrcodegen.o

.data%z255      0x00000000        0x0
 .data          0x00000000        0x0 build/default/production/src/qrcodegen.o

.bss%z256       0x00000000        0x0
 .bss           0x00000000        0x0 build/default/production/src/puzzle.o

.data%z257      0x00000000        0x0
 .data          0x00000000        0x0 build/default/production/src/puzzle.o

.bss%z258       0x00000000        0x0
 .bss           0x00000000        0x0 build/default/production/src/user_program.o

.data%z259      0x00000000        0x0
 .data          0x00000000        0x0 build/default/production/src/user_program.o

.bss%z260       0x00000000        0x0
 .bss           0x00000000        0x0 build/default/production/src/nyancat.o

.data%z261      0x00000000        0x0
 .data          0x00000000        0x0 build/default/production/src/vt100.o

.bss%z262       0x00000000        0x0
 .bss           0x00000000        0x0 build/default/production/src/tune_player.o

.data%z263      0x00000000        0x0
 .data          0x00000000        0x0 build/default/production/src/tune_player.o

.bss%z264       0x00000000        0x0
 .bss           0x00000000        0x0 build/default/production/src/tetrapuzz.o

.data%z265      0x00000000        0x0
 .data          0x00000000        0x0 build/default/production/src/tetrapuzz.o

.bss%z266       0x00000000        0x0
 .bss           0x00000000        0x0 build/default/production/src/splash.o

.data%z267      0x00000000        0x0
 .data          0x00000000        0x0 build/default/production/src/splash.o

.bss%z268       0x00000000        0x0
 .bss           0x00000000        0x0 build/default/production/src/snake.o

.data%z269      0x00000000        0x0
 .data          0x00000000        0x0 build/default/production/src/snake.o

.bss%z270       0x00000000        0x0
 .bss           0x00000000        0x0 build/default/production/src/post.o

.data%z271      0x00000000        0x0
 .data          0x00000000        0x0 build/default/production/src/post.o

.bss%z272       0x00000000        0x0
 .bss           0x00000000        0x0 build/default/production/src/main.o

.data%z273      0x00000000        0x0
 .data          0x00000000        0x0 build/default/production/src/main.o

.bss%z274       0x00000000        0x0
 .bss           0x00000000        0x0 build/default/production/src/images.o

.data%z275      0x00000000        0x0
 .data          0x00000000        0x0 build/default/production/src/images.o

.bss%z276       0x00000000        0x0
 .bss           0x00000000        0x0 build/default/production/src/hw.o

.data%z277      0x00000000        0x0
 .data          0x00000000        0x0 build/default/production/src/hw.o

.bss%z278       0x00000000        0x0
 .bss           0x00000000        0x0 build/default/production/src/disp.o

.bss%z279       0x00000000        0x0
 .bss           0x00000000        0x0 build/default/production/src/box_game.o

.data%z280      0x00000000        0x0
 .data          0x00000000        0x0 build/default/production/src/box_game.o

.bss%z281       0x00000000        0x0
 .bss           0x00000000        0x0 build/default/production/src/badge.o

.bss%z282       0x00000000        0x0
 .bss           0x00000000        0x0 build/default/production/src/Z80/sim6.o

.data%z283      0x00000000        0x0
 .data          0x00000000        0x0 build/default/production/src/Z80/sim6.o

.bss%z284       0x00000000        0x0
 .bss           0x00000000        0x0 build/default/production/src/Z80/simglb.o

.data%z285      0x00000000        0x0
 .data          0x00000000        0x0 build/default/production/src/Z80/simglb.o

.bss%z286       0x00000000        0x0
 .bss           0x00000000        0x0 build/default/production/src/Z80/hwz.o

.data%z287      0x00000000        0x0
 .data          0x00000000        0x0 build/default/production/src/Z80/hwz.o

.bss%z288       0x00000000        0x0
 .bss           0x00000000        0x0 build/default/production/src/Z80/simfun.o

.data%z289      0x00000000        0x0
 .data          0x00000000        0x0 build/default/production/src/Z80/simfun.o

.bss%z290       0x00000000        0x0
 .bss           0x00000000        0x0 build/default/production/src/Z80/sim7.o

.data%z291      0x00000000        0x0
 .data          0x00000000        0x0 build/default/production/src/Z80/sim7.o

.bss%z292       0x00000000        0x0
 .bss           0x00000000        0x0 build/default/production/src/Z80/sim5.o

.data%z293      0x00000000        0x0
 .data          0x00000000        0x0 build/default/production/src/Z80/sim5.o

.bss%z294       0x00000000        0x0
 .bss           0x00000000        0x0 build/default/production/src/Z80/iosim.o

.data%z295      0x00000000        0x0
 .data          0x00000000        0x0 build/default/production/src/Z80/iosim.o

.bss%z296       0x00000000        0x0
 .bss           0x00000000        0x0 build/default/production/src/Z80/sim3.o

.data%z297      0x00000000        0x0
 .data          0x00000000        0x0 build/default/production/src/Z80/sim3.o

.bss%z298       0x00000000        0x0
 .bss           0x00000000        0x0 build/default/production/src/Z80/sim1.o

.data%z299      0x00000000        0x0
 .data          0x00000000        0x0 build/default/production/src/Z80/sim1.o

.bss%z300       0x00000000        0x0
 .bss           0x00000000        0x0 build/default/production/src/Z80/sim4.o

.data%z301      0x00000000        0x0
 .data          0x00000000        0x0 build/default/production/src/Z80/sim4.o

.bss%z302       0x00000000        0x0
 .bss           0x00000000        0x0 build/default/production/src/Z80/sim2.o

.data%z303      0x00000000        0x0
 .data          0x00000000        0x0 build/default/production/src/Z80/sim2.o

.bss%z304       0x00000000        0x0
 .bss           0x00000000        0x0 build/default/production/src/basic/tokenizer_slow.o

.data%z305      0x00000000        0x0
 .data          0x00000000        0x0 build/default/production/src/basic/tokenizer_slow.o

.bss%z306       0x00000000        0x0
 .bss           0x00000000        0x0 build/default/production/src/basic/tokenizer_fast.o

.data%z307      0x00000000        0x0
 .data          0x00000000        0x0 build/default/production/src/basic/tokenizer_fast.o

.data%z308      0x00000000        0x0
 .data          0x00000000        0x0 build/default/production/src/basic/ubasic.o

.bss%z309       0x00000000        0x0
 .bss           0x00000000        0x0 build/default/production/src/basic/tokenizer.o

.data%z310      0x00000000        0x0
 .data          0x00000000        0x0 build/default/production/src/basic/tokenizer.o

.bss%z311       0x00000000        0x0
 .bss           0x00000000        0x0 /Applications/microchip/xc32/v2.10/bin/bin/../../lib/gcc/pic32mx/4.8.3/../../../../pic32mx/lib/debug-exception-return.o

.data%z312      0x00000000        0x0
 .data          0x00000000        0x0 /Applications/microchip/xc32/v2.10/bin/bin/../../lib/gcc/pic32mx/4.8.3/../../../../pic32mx/lib/debug-exception-return.o

.bss%z313       0x00000000        0x0
 .bss           0x00000000        0x0 /Applications/microchip/xc32/v2.10/bin/bin/../../lib/gcc/pic32mx/4.8.3/../../../../pic32mx/lib/./proc/32MX370F512H/crt0_mips32r2.o

.data%z314      0x00000000        0x0
 .data          0x00000000        0x0 /Applications/microchip/xc32/v2.10/bin/bin/../../lib/gcc/pic32mx/4.8.3/../../../../pic32mx/lib/./proc/32MX370F512H/crt0_mips32r2.o

._debug_exception
                0xbfc00480       0x2c
 ._debug_exception
                0xbfc00480       0x2c /Applications/microchip/xc32/v2.10/bin/bin/../../lib/gcc/pic32mx/4.8.3/../../../../pic32mx/lib/debug-exception-return.o
                0xbfc00480                __DbgExecReturn

.rodata         0x9d000000    0x3e824
 .rodata        0x9d000000    0x3e824 build/default/production/src/images.o
                0x9d000000                rd_image2
                0x9d01b800                rd_image
                0x9d03b800                ram_image_b
                0x9d03e000                ram_image_a
                0x9d03e004                b2_rom
                0x9d03e804                ram_init

.text           0x9d03e824     0xbdf4
 .text          0x9d03e824     0x6b64 build/default/production/src/Z80/sim1.o
                0x9d0452f8                cpu
 .text          0x9d045388     0x5290 build/default/production/src/qrcodegen.o
                0x9d0465e0                qrcodegen_getSize
                0x9d046e58                qrcodegen_encodeSegmentsAdvanced
                0x9d0499b4                qrcodegen_encodeBinary
                0x9d049a5c                qrcodegen_encodeSegments
                0x9d049a9c                qrcodegen_getModule
                0x9d049b14                qrcodegen_isAlphanumeric
                0x9d049ba0                qrcodegen_isNumeric
                0x9d049c24                qrcodegen_calcSegmentBufferSize
                0x9d049c80                qrcodegen_makeBytes
                0x9d049d60                qrcodegen_makeNumeric
                0x9d049f3c                qrcodegen_makeAlphanumeric
                0x9d04a120                qrcodegen_encodeText
                0x9d04a4b0                qrcodegen_makeEci

.text           0x9d04a618     0x7380
 .text          0x9d04a618     0x44f8 build/default/production/src/Z80/sim2.o
                0x9d04eab0                op_cb_handel
 .text          0x9d04eb10     0x2e88 build/default/production/src/badge.o
                0x9d04eb10                wake_return
                0x9d04eb18                badge_init
                0x9d04eb6c                hash
                0x9d04ec9c                get_command_index
                0x9d04ed8c                loop_badge
                0x9d04eed0                enable_display_scanning
                0x9d04eef0                millis
                0x9d04eefc                init_8080_basic
                0x9d04f0cc                loop_8080_basic
                0x9d04f0e8                init_z80_cpm
                0x9d04f1d8                loop_z80_cpm
                0x9d04f1f4                init_puzzle
                0x9d04f210                loop_puzzle
                0x9d04f22c                init_userprog
                0x9d04f248                loop_userprog
                0x9d04f264                clr_buffer
                0x9d04f318                get_firmware_string
                0x9d04f324                get_free_mem
                0x9d04f350                add_prog_line
                0x9d04f520                basic_loads
                0x9d04f5d0                basic_saves
                0x9d04f63c                basic_save_program
                0x9d04f6f4                basic_load_program
                0x9d04f778                stdio_write
                0x9d04f834                show_help
                0x9d04f8e8                wisecrack
                0x9d04fc50                random_crack
                0x9d04fccc                show_version
                0x9d04fd10                init_basic
                0x9d04fd60                stdio_c
                0x9d04fde0                showchars
                0x9d04ff88                clear_crack
                0x9d050010                clear_prompt
                0x9d050060                fancyframe
                0x9d050304                showmenu
                0x9d05047c                term_k_stat
                0x9d0504a8                term_k_char
                0x9d05050c                boot_animation
                0x9d050564                stdio_local_buffer_state
                0x9d050570                stdio_get_state
                0x9d0505d4                stdio_local_buffer_get
                0x9d050664                stdio_get
                0x9d0506fc                playriff
                0x9d050874                show_wrencher
                0x9d050950                list_more
                0x9d050a3c                stdio_local_buffer_put
                0x9d050a68                stdio_local_buffer_puts
                0x9d050aa4                get_user_value
                0x9d050b9c                display_refresh_force
                0x9d050bc4                cmd_exec
                0x9d05105c                loop_basic
                0x9d05116c                badge_menu
                0x9d0516a0                Timer5Handler
                0x9d05187c                Timer1Handler
                0x9d051910                Int2Handler

.text           0x9d051998     0x4984
 .text          0x9d051998     0x25c4 build/default/production/src/disp.o
                0x9d051998                set_cursor_state
                0x9d0519b0                disp_tasks
                0x9d0519ec                TFT_24_7789_Write_Command
                0x9d051a40                tft_set_write_area
                0x9d051b4c                tft_fill_area
                0x9d051e14                tft_print_char
                0x9d0523ec                tft_disp_buffer_refresh_part
                0x9d052f64                tft_disp_buffer_refresh
                0x9d053aa0                TFT_24_7789_Write_Data
                0x9d053ac4                TFT_24_7789_Write_Data3
                0x9d053b00                TFT_24_7789_Init
 .text          0x9d053f5c     0x23c0 build/default/production/src/Z80/sim4.o
                0x9d0562bc                op_ed_handel

.text           0x9d05631c     0x2020
 .text          0x9d05631c     0x2020 build/default/production/src/vt100.o
                0x9d0568b0                video_set_color
                0x9d0568c4                buf_enqueue
                0x9d056924                buf_dequeue
                0x9d056984                buf_size
                0x9d056990                escseq_csi_start
                0x9d0569d8                escseq_get_param
                0x9d056a50                save_term_state
                0x9d056a64                restore_term_state
                0x9d056a78                reset_term
                0x9d056a9c                video_top_margin
                0x9d056aa4                video_bottom_margin
                0x9d056aac                video_set_reverse
                0x9d056abc                video_scrollup
                0x9d056ad8                video_scrolldown
                0x9d056af4                video_movesol
                0x9d056afc                video_setx
                0x9d056b24                video_gotoxy
                0x9d056b6c                video_set_margins
                0x9d056bc0                video_reset_margins
                0x9d056be0                term_init
                0x9d056c2c                video_movex
                0x9d056c60                video_movey
                0x9d056c9c                video_cfwd
                0x9d056cb8                video_lfwd
                0x9d056cf8                video_lf
                0x9d056d34                video_lback
                0x9d056d64                video_cback
                0x9d056dac                video_getx
                0x9d056db4                video_gety
                0x9d056dbc                video_charat
                0x9d056de8                video_clrscr
                0x9d056e34                escseq_process_noncsi
                0x9d057028                video_clrline
                0x9d057088                video_clreol
                0x9d0570fc                video_erase
                0x9d057464                video_eraseline
                0x9d057728                escseq_process_csi
                0x9d057cf4                escseq_process
                0x9d057d64                video_putcxy
                0x9d057dc0                video_setc
                0x9d057e08                video_putc
                0x9d057e24                video_putc_raw
                0x9d057e98                receive_char
                0x9d057fc0                video_puts
                0x9d057ffc                video_show_cursor
                0x9d058014                video_hide_cursor
                0x9d058028                video_cursor_visible
                0x9d058034                video_invert_range
                0x9d0581bc                video_putsxy
                0x9d05829c                video_putline

.rodata         0x9d05833c     0x1c74
 .rodata        0x9d05833c     0x1c74 build/default/production/src/nyancat.o
                0x9d05833c                cat4_frame11
                0x9d058540                cat4_frame10
                0x9d058740                cat4_frame9
                0x9d058958                cat4_frame8
                0x9d058b54                cat4_frame7
                0x9d058d78                cat4_frame6
                0x9d058f94                cat4_frame5
                0x9d0591ac                cat4_frame4
                0x9d0593b0                cat4_frame3
                0x9d0595c0                cat4_frame2
                0x9d0597bc                cat4_frame1
                0x9d0599bc                cat4_frame0
                0x9d059bb8                cat4_palette
                0x9d059bf0                nyancat_sequence
                0x9d059c00                nyancat_measure8
                0x9d059c28                nyancat_measure7
                0x9d059c50                nyancat_measure6
                0x9d059c78                nyancat_measure5
                0x9d059ca4                nyancat_measure4
                0x9d059ccc                nyancat_measure3
                0x9d059cf0                nyancat_measure2
                0x9d059d1c                nyancat_measure1
                0x9d059d4c                nyancat_measure0
                0x9d059d70                nyancat_measure_limits
                0x9d059d7c                nyancat_durations

.text           0x9d059fb0     0x3560
 .text          0x9d059fb0     0x1ab0 build/default/production/src/basic/tokenizer.o
                0x9d059fb0                scan
                0x9d05b8dc                tokenizer_init
                0x9d05b924                tokenizer_token
                0x9d05b930                tokenizer_num
                0x9d05b958                tokenizer_string
                0x9d05b9b8                tokenizer_error_print
                0x9d05b9c0                tokenizer_finished
                0x9d05b9ec                tokenizer_next
                0x9d05ba28                tokenizer_variable_num
                0x9d05ba54                __getAt
 .text          0x9d05ba60     0x1ab0 build/default/production/src/basic/tokenizer_fast.o

.text           0x9d05d510     0x2fa4
 .text          0x9d05d510     0x19bc build/default/production/src/splash.o
                0x9d05d510                draw_and_record_pixel
                0x9d05d56c                draw_and_record_box
                0x9d05d808                draw_bg_or_not
                0x9d05d878                draw_arc
                0x9d05dd20                show_splash
                0x9d05e000                draw_vert_line
                0x9d05e028                overlaps_logo
                0x9d05e0d0                move_box_right
                0x9d05e1b8                move_box_left
                0x9d05e2a4                splash_delay
                0x9d05e2e8                animate_splash
 .text          0x9d05eecc     0x15e8 build/default/production/src/hw.o
                0x9d05eecc                get_led_word
                0x9d05ef08                set_led_word
                0x9d05efb4                set_led
                0x9d05f010                sound_set_generator
                0x9d05f138                sound_set_note
                0x9d05f164                key_functional_pressed
                0x9d05f1a0                keyb_tasks
                0x9d05f530                wait_ms
                0x9d05f574                sound_play_notes
                0x9d05f620                hw_init
                0x9d05fb78                hw_sleep
                0x9d05fe74                SPI_dat
                0x9d05fe9c                get_rnd
                0x9d05fed4                Timer2Handler
                0x9d05ff8c                Timer3Handler
                0x9d060044                Timer4Handler
                0x9d0600fc                exp_set
                0x9d06017c                exp_ddr
                0x9d0601fc                exp_get
                0x9d060260                rx_sta
                0x9d060278                serial_flush
                0x9d0602e8                rx_read
                0x9d0602f8                tx_write
                0x9d06031c                iic_init
                0x9d060360                iic_start
                0x9d060390                iic_restart
                0x9d0603c0                iic_read
                0x9d060450                iic_stop
                0x9d060480                iic_write
                0x9d0604a4                iic_ackstat

.text           0x9d0604b4     0x29e0
 .text          0x9d0604b4     0x151c build/default/production/src/box_game.o
                0x9d0604b4                BOX_seed_random
                0x9d0604d8                BOX_inc_random
                0x9d0604fc                BOX_get_score
                0x9d060504                BOX_get_delay
                0x9d060568                BOX_clearscreen
                0x9d060594                BOX_draw
                0x9d0605e4                BOX_erase
                0x9d060634                BOX_end_game
                0x9d06063c                BOX_print_string
                0x9d0606d0                BOX_show_gameover
                0x9d060748                BOX_update_score
                0x9d060854                BOX_loc_return_bit
                0x9d06088c                BOX_loc_set_bit
                0x9d0608cc                BOX_loc_clear_bit
                0x9d060910                BOX_store_loc
                0x9d060a6c                BOX_clear_loc
                0x9d060bc8                BOX_load_reference
                0x9d060c04                BOX_write_piece
                0x9d060d40                BOX_clear_piece
                0x9d060e6c                BOX_rewrite_display
                0x9d06109c                BOX_pregame
                0x9d0612b4                BOX_update_screen
                0x9d0612bc                BOX_check
                0x9d0614c4                BOX_rotate
                0x9d061560                BOX_spawn
                0x9d0615c8                BOX_start_game
                0x9d061634                BOX_line_check
                0x9d061868                BOX_up
                0x9d0618b8                BOX_dn
                0x9d061930                BOX_lt
                0x9d061980                BOX_rt
 .text          0x9d0619d0     0x14c4 build/default/production/src/basic/ubasic.o
                0x9d06201c                ubasic_init
                0x9d062064                println_statement
                0x9d06218c                get_memory
                0x9d0621a0                set_memory
                0x9d0621b4                seek_end
                0x9d062ddc                ubasic_run
                0x9d062e1c                ubasic_finished
                0x9d062e48                ubasic_set_variable
                0x9d062e6c                ubasic_get_variable

.text           0x9d062e94     0x2558
 .text          0x9d062e94     0x143c build/default/production/src/puzzle.o
                0x9d062e94                glyph_line
                0x9d062f0c                draw_glyph
                0x9d062fd8                repeat_char
                0x9d063180                draw_single_tile
                0x9d06325c                erase_single_tile
                0x9d063300                draw_pointer
                0x9d0633a8                draw_all_tiles
                0x9d06345c                draw_score
                0x9d0636e0                draw_header
                0x9d0637ec                puzzle_init
                0x9d063818                blank_score
                0x9d06395c                shift
                0x9d063994                move_cursor
                0x9d0639b8                place
                0x9d0639d4                remove_tile
                0x9d0639f0                score
                0x9d063d74                redraw_screen
                0x9d063de8                ftw
                0x9d063ea8                puzzle_loop
 .text          0x9d0642d0     0x111c build/default/production/src/Z80/hwz.o
                0x9d0642d0                reload_cpm_warm
                0x9d0643c4                rxm_sta
                0x9d0643cc                rxm_read
                0x9d0643d4                txm_write
                0x9d0643dc                set_drive
                0x9d0643e8                set_sector
                0x9d0643f4                set_track
                0x9d064400                fl_rdsr
                0x9d064458                fl_rdid
                0x9d0644dc                fl_read_4k
                0x9d0645c0                fl_read_nk
                0x9d064794                fl_wren
                0x9d0647d8                fl_unlock
                0x9d064820                fl_erase_4k
                0x9d06489c                fl_write
                0x9d06491c                fl_rst_pb
                0x9d06496c                fl_write_4k
                0x9d0649d0                fl_write_128
                0x9d064b1c                write_disk_byte
                0x9d064c44                fl_read_128
                0x9d064cb0                read_disk_byte
                0x9d064e24                init_first_x_sects

.text           0x9d0653ec     0x2008
 .text          0x9d0653ec     0x1004 build/default/production/src/Z80/sim3.o
                0x9d066390                op_dd_handel
 .text          0x9d0663f0     0x1004 build/default/production/src/Z80/sim5.o
                0x9d067394                op_fd_handel

.rodata         0x9d0673f4      0xd74
 .rodata        0x9d0673f4      0xd74 build/default/production/src/badge.o
                0x9d06794c                blanks
                0x9d067974                rand_crack18
                0x9d067988                rand_crack17
                0x9d067994                rand_crack16
                0x9d0679b0                rand_crack15
                0x9d0679cc                rand_crack14
                0x9d0679f4                rand_crack13
                0x9d067a0c                rand_crack12
                0x9d067a4c                rand_crack11
                0x9d067a74                rand_crack10
                0x9d067a8c                rand_crack09
                0x9d067abc                rand_crack08
                0x9d067afc                rand_crack07
                0x9d067b28                rand_crack06
                0x9d067b48                rand_crack05
                0x9d067b74                rand_crack04
                0x9d067b90                rand_crack03
                0x9d067ba8                rand_crack02
                0x9d067bdc                rand_crack01
                0x9d067bfc                rand_crack00
                0x9d067c20                wrencher
                0x9d067f04                hashtable

.text._fconvert
                0x9d068168      0xd34
 .text._fconvert
                0x9d068168      0xd34 /Applications/microchip/xc32/v2.10/bin/bin/../../lib/gcc/pic32mx/4.8.3/../../../../pic32mx/lib/liblega-c.a(_doprnt.o)

.text           0x9d068e9c     0x1918
 .text          0x9d068e9c      0xcc4 build/default/production/src/snake.o
                0x9d068e9c                Draw_Box
                0x9d068ecc                Write_String
                0x9d068f68                change_direction
                0x9d068fec                absolute_difference
                0x9d069010                neighbors
                0x9d06907c                ate_fruit
                0x9d06909c                game_over
                0x9d0690d8                move_head
                0x9d06924c                follow_tail
                0x9d069388                get_next_node
                0x9d0693a0                get_previous_node
                0x9d0693b8                get_node_list_length
                0x9d0693f0                collision
                0x9d069738                make_fruit
                0x9d069828                snake_init
                0x9d06993c                play_snake
 .text          0x9d069b60      0xc54 build/default/production/src/post.o
                0x9d069b60                io_test_state
                0x9d069e28                post

.text.do_scan   0x9d06a7b4      0xc18
 .text.do_scan  0x9d06a7b4      0xc18 /Applications/microchip/xc32/v2.10/bin/bin/../../lib/gcc/pic32mx/4.8.3/../../../../pic32mx/lib/liblega-c.a(_doscan.o)
                0x9d06a7b4                do_scan

.dinit          0x9d06b3cc      0xb40
 .dinit         0x9d06b3cc      0xb40 data_init

.text           0x9d06bf0c     0x1658
 .text          0x9d06bf0c      0xb2c build/default/production/src/Z80/sim7.o
                0x9d06c9ac                op_fdcb_handel
 .text          0x9d06ca38      0xb2c build/default/production/src/Z80/sim6.o
                0x9d06d4d8                op_ddcb_handel

.text.do_print  0x9d06d564      0xb10
 .text.do_print
                0x9d06d564      0xb10 /Applications/microchip/xc32/v2.10/bin/bin/../../lib/gcc/pic32mx/4.8.3/../../../../pic32mx/lib/liblega-c.a(_doprnt.o)
                0x9d06d564                do_print

.rodata         0x9d06e074      0xa80
 .rodata        0x9d06e074      0xa80 build/default/production/src/disp.o
                0x9d06e074                font

.text._do_print_cdnopsuxX
                0x9d06eaf4      0xa70
 .text._do_print_cdnopsuxX
                0x9d06eaf4      0xa70 /Applications/microchip/xc32/v2.10/bin/bin/../../lib/gcc/pic32mx/4.8.3/../../../../pic32mx/lib/liblega-c.a(_doprnt_cdnopsuxX.eo)
                0x9d06eaf4                _do_print_cdnopsuxX
                0x9d06eaf4                _do_print_cdnopuxX

.text           0x9d06f564      0x914
 .text          0x9d06f564      0x914 build/default/production/src/user_program.o
                0x9d06f564                updateQrCode
                0x9d06f95c                printString
                0x9d06f9f8                updateText
                0x9d06fb88                updateScreen
                0x9d06fbc8                setup_screen
                0x9d06fc04                saveQrText
                0x9d06fc30                backspace
                0x9d06fd10                user_program_loop
                0x9d06fdf4                loadQrText
                0x9d06fe3c                user_program_init

.rodata         0x9d06fe78      0x8dc
 .rodata        0x9d06fe78      0x8dc build/default/production/src/qrcodegen.o

.text.malloc    0x9d070754      0x800
 .text.malloc   0x9d070754      0x800 /Applications/microchip/xc32/v2.10/bin/bin/../../lib/gcc/pic32mx/4.8.3/../../../../pic32mx/lib/liblega-c.a(malloc.o)
                0x9d070754                malloc

.text           0x9d070f54      0x648
 .text          0x9d070f54      0x648 build/default/production/src/nyancat.o
                0x9d070f54                play_next_note
                0x9d071018                nyancat

.text.realloc   0x9d07159c      0x584
 .text.realloc  0x9d07159c      0x584 /Applications/microchip/xc32/v2.10/bin/bin/../../lib/gcc/pic32mx/4.8.3/../../../../pic32mx/lib/liblega-c.a(malloc_realloc.o)
                0x9d07159c                realloc

.text           0x9d071b20      0x4e8
 .text          0x9d071b20      0x4e8 build/default/production/src/basic/tokenizer_slow.o

.rodata         0x9d072008      0x4d8
 .rodata        0x9d072008      0x4d8 build/default/production/src/basic/tokenizer_slow.o

.text.dp32mul   0x9d0724e0      0x4b8
 .text.dp32mul  0x9d0724e0      0x4b8 /Applications/microchip/xc32/v2.10/bin/bin/../../lib/gcc/pic32mx/4.8.3/../../../../pic32mx/lib/libm.a(dp32div.o)
                0x9d0724e0                dpdiv
                0x9d0724e0                __divdf3

.text           0x9d072998      0x918
 .text          0x9d072998      0x4b4 /Applications/microchip/xc32/v2.10/bin/bin/../../lib/gcc/pic32mx/4.8.3/libgcc.a(_divdi3.o)
                0x9d072998                __divdi3
 .text          0x9d072e4c      0x464 /Applications/microchip/xc32/v2.10/bin/bin/../../lib/gcc/pic32mx/4.8.3/libgcc.a(_umoddi3.o)
                0x9d072e4c                __umoddi3

.text           0x9d0732b0      0x458
 .text          0x9d0732b0      0x458 /Applications/microchip/xc32/v2.10/bin/bin/../../lib/gcc/pic32mx/4.8.3/libgcc.a(_udivdi3.o)
                0x9d0732b0                __udivdi3

.text.dp32subadd
                0x9d073708      0x430
 .text.dp32subadd
                0x9d073708      0x430 /Applications/microchip/xc32/v2.10/bin/bin/../../lib/gcc/pic32mx/4.8.3/../../../../pic32mx/lib/libm.a(dp32subadd.o)
                0x9d073708                dpsub
                0x9d073708                __subdf3
                0x9d073710                __adddf3
                0x9d073710                dpadd

.rodata         0x9d073b38      0x800
 .rodata        0x9d073b38      0x400 build/default/production/src/Z80/sim2.o
 .rodata        0x9d073f38      0x400 build/default/production/src/Z80/sim4.o

.rodata         0x9d074338      0x800
 .rodata        0x9d074338      0x400 build/default/production/src/Z80/sim1.o
 .rodata        0x9d074738      0x400 build/default/production/src/Z80/sim3.o

.rodata         0x9d074b38      0x800
 .rodata        0x9d074b38      0x400 build/default/production/src/Z80/sim5.o
 .rodata        0x9d074f38      0x400 build/default/production/src/Z80/sim7.o

.rodata         0x9d075338      0x800
 .rodata        0x9d075338      0x400 build/default/production/src/Z80/simglb.o
                0x9d075338                parrity
 .rodata        0x9d075738      0x400 build/default/production/src/Z80/sim6.o

.text.__strtod  0x9d075b38      0x3d0
 .text.__strtod
                0x9d075b38      0x3d0 /Applications/microchip/xc32/v2.10/bin/bin/../../lib/gcc/pic32mx/4.8.3/../../../../pic32mx/lib/libm.a(__strtod.o)
                0x9d075b38                __strtod

.text.strtoll   0x9d075f08      0x388
 .text.strtoll  0x9d075f08      0x388 /Applications/microchip/xc32/v2.10/bin/bin/../../lib/gcc/pic32mx/4.8.3/../../../../pic32mx/lib/liblega-c.a(strtoll.o)
                0x9d075f08                strtoll

.text           0x9d076290      0x378
 .text          0x9d076290      0x378 build/default/production/src/tune_player.o
                0x9d076290                play_music_array
                0x9d0764b4                play_mario_tune

.text.__strtof  0x9d076608      0x358
 .text.__strtof
                0x9d076608      0x358 /Applications/microchip/xc32/v2.10/bin/bin/../../lib/gcc/pic32mx/4.8.3/../../../../pic32mx/lib/libm.a(__strtof.o)
                0x9d076608                __strtof

.text.dp32mul   0x9d076960      0x32c
 .text.dp32mul  0x9d076960      0x32c /Applications/microchip/xc32/v2.10/bin/bin/../../lib/gcc/pic32mx/4.8.3/../../../../pic32mx/lib/libm.a(dp32mul.o)
                0x9d076960                dpmul
                0x9d076960                __muldf3

.rodata         0x9d076c8c      0x31c
 .rodata        0x9d076c8c      0x31c build/default/production/src/basic/ubasic.o
                0x9d076d78                b_cipher
                0x9d076d90                mario_clip4
                0x9d076dd0                mario_clip3
                0x9d076e10                mario_clip2
                0x9d076e50                mario_clip1
                0x9d076e88                mario_clip0
                0x9d076ebc                mario_main3
                0x9d076ef4                mario_main2
                0x9d076f28                mario_main1
                0x9d076f5c                mario_main0
                0x9d076f8c                mario_tempos
                0x9d076f9c                mario_array_limits

.text.strtoull  0x9d076fa8      0x30c
 .text.strtoull
                0x9d076fa8      0x30c /Applications/microchip/xc32/v2.10/bin/bin/../../lib/gcc/pic32mx/4.8.3/../../../../pic32mx/lib/liblega-c.a(strtoull.o)
                0x9d076fa8                strtoull

.rodata         0x9d0772b4      0x2c8
 .rodata        0x9d0772b4      0x2c8 build/default/production/src/puzzle.o
                0x9d0772d4                puzzle_messages
                0x9d0772f0                cypher1
                0x9d077304                cypher0
                0x9d077318                glyph
                0x9d077340                tile_colors

.text._strtostr
                0x9d07757c      0x284
 .text._strtostr
                0x9d07757c      0x284 /Applications/microchip/xc32/v2.10/bin/bin/../../lib/gcc/pic32mx/4.8.3/../../../../pic32mx/lib/liblega-c.a(_doscan.o)

.text.strtoul   0x9d077800      0x280
 .text.strtoul  0x9d077800      0x280 /Applications/microchip/xc32/v2.10/bin/bin/../../lib/gcc/pic32mx/4.8.3/../../../../pic32mx/lib/liblega-c.a(strtoul.o)
                0x9d077800                strtoul

.text.strtol    0x9d077a80      0x27c
 .text.strtol   0x9d077a80      0x27c /Applications/microchip/xc32/v2.10/bin/bin/../../lib/gcc/pic32mx/4.8.3/../../../../pic32mx/lib/liblega-c.a(strtol.o)
                0x9d077a80                strtol

.text.free      0x9d077cfc      0x27c
 .text.free     0x9d077cfc      0x27c /Applications/microchip/xc32/v2.10/bin/bin/../../lib/gcc/pic32mx/4.8.3/../../../../pic32mx/lib/liblega-c.a(malloc.o)
                0x9d077cfc                free

.text.fpsubadd  0x9d077f78      0x278
 .text.fpsubadd
                0x9d077f78      0x278 /Applications/microchip/xc32/v2.10/bin/bin/../../lib/gcc/pic32mx/4.8.3/../../../../pic32mx/lib/libm.a(fp32subadd.o)
                0x9d077f78                __subsf3
                0x9d077f78                fpsub
                0x9d077f80                fpadd
                0x9d077f80                __addsf3

.rodata         0x9d0781f0      0x480
 .rodata        0x9d0781f0      0x250 build/default/production/src/user_program.o
 .rodata        0x9d078440      0x230 build/default/production/src/main.o

.rodata         0x9d078670      0x230
 .rodata        0x9d078670      0x230 build/default/production/src/vt100.o

.text.fp32div   0x9d0788a0      0x230
 .text.fp32div  0x9d0788a0      0x230 /Applications/microchip/xc32/v2.10/bin/bin/../../lib/gcc/pic32mx/4.8.3/../../../../pic32mx/lib/libm.a(fp32div.o)
                0x9d0788a0                __divsf3
                0x9d0788a0                fpdiv

.rodata         0x9d078ad0      0x218
 .rodata        0x9d078ad0      0x218 build/default/production/src/tune_player.o

.text           0x9d078ce8      0x214
 .text          0x9d078ce8      0x214 build/default/production/src/Z80/iosim.o
                0x9d078ce8                init_io
                0x9d078cf0                exit_io
                0x9d078cf8                io_in
                0x9d078dfc                io_out

.rodata         0x9d078efc      0x1fc
 .rodata        0x9d078efc      0x1fc build/default/production/src/post.o
                0x9d0790cc                post_char_table

.text.fp32mul   0x9d0790f8      0x1bc
 .text.fp32mul  0x9d0790f8      0x1bc /Applications/microchip/xc32/v2.10/bin/bin/../../lib/gcc/pic32mx/4.8.3/../../../../pic32mx/lib/libm.a(fp32mul.o)
                0x9d0790f8                __mulsf3
                0x9d0790f8                fpmul

.text.__ldexp   0x9d0792b4      0x1a8
 .text.__ldexp  0x9d0792b4      0x1a8 /Applications/microchip/xc32/v2.10/bin/bin/../../lib/gcc/pic32mx/4.8.3/../../../../pic32mx/lib/libe.a(_ldexp.o)
                0x9d0792b4                __ldexp

.text           0x9d07945c      0x1a0
 .text          0x9d07945c      0x1a0 /Applications/microchip/xc32/v2.10/bin/bin/../../lib/gcc/pic32mx/4.8.3/../../../../pic32mx/lib/libpic32.a(strcpy.o)
                0x9d07945c                strcpy

.rodata         0x9d0795fc      0x19c
 .rodata        0x9d0795fc      0x19c build/default/production/src/hw.o
                0x9d0795fc                tone_pr_table
                0x9d0796fc                keys_shift_r
                0x9d079730                keys_shift_l
                0x9d079764                keys_normal

.text._sbrk_init
                0x9d079798      0x194
 .text._sbrk_init
                0x9d079798      0x194 /Applications/microchip/xc32/v2.10/bin/bin/../../lib/gcc/pic32mx/4.8.3/../../../../pic32mx/lib/libpic32.a(sbrk.o)
                0x9d079798                _sbrk_init

.text           0x9d07992c      0x2dc
 .text          0x9d07992c      0x174 build/default/production/src/tetrapuzz.o
                0x9d07992c                tetrapuzz_init
                0x9d079974                tetrapuzz_loop
                0x9d0799c0                tetrapuzz
                0x9d079a90                tetrapuzz_pause
                0x9d079a98                tetrapuzz_gameover
 .text          0x9d079aa0      0x168 /Applications/microchip/xc32/v2.10/bin/bin/../../lib/gcc/pic32mx/4.8.3/../../../../pic32mx/lib/libpic32.a(memcpy.o)
                0x9d079aa0                memcpy

.text           0x9d079c08      0x168
 .text          0x9d079c08      0x168 /Applications/microchip/xc32/v2.10/bin/bin/../../lib/gcc/pic32mx/4.8.3/../../../../pic32mx/lib/libpic32.a(strlen.o)
                0x9d079c08                strlen

.text._outcnvrt
                0x9d079d70      0x278
 .text._outcnvrt
                0x9d079d70      0x13c /Applications/microchip/xc32/v2.10/bin/bin/../../lib/gcc/pic32mx/4.8.3/../../../../pic32mx/lib/liblega-c.a(_doprnt_cdnopsuxX.eo)
 .text._outcnvrt
                0x9d079eac      0x13c /Applications/microchip/xc32/v2.10/bin/bin/../../lib/gcc/pic32mx/4.8.3/../../../../pic32mx/lib/liblega-c.a(_doprnt.o)

.text.ungetc    0x9d079fe8      0x134
 .text.ungetc   0x9d079fe8      0x134 /Applications/microchip/xc32/v2.10/bin/bin/../../lib/gcc/pic32mx/4.8.3/../../../../pic32mx/lib/liblega-c.a(ungetc.o)
                0x9d079fe8                ungetc

.text.rounded.isra.0
                0x9d07a11c      0x130
 .text.rounded.isra.0
                0x9d07a11c      0x130 /Applications/microchip/xc32/v2.10/bin/bin/../../lib/gcc/pic32mx/4.8.3/../../../../pic32mx/lib/liblega-c.a(_doprnt.o)

.text           0x9d07a24c      0x120
 .text          0x9d07a24c      0x120 /Applications/microchip/xc32/v2.10/bin/bin/../../lib/gcc/pic32mx/4.8.3/../../../../pic32mx/lib/libpic32.a(strcmp.o)
                0x9d07a24c                strcmp

.text.putget.2780
                0x9d07a36c      0x10c
 .text.putget.2780
                0x9d07a36c      0x10c /Applications/microchip/xc32/v2.10/bin/bin/../../lib/gcc/pic32mx/4.8.3/../../../../pic32mx/lib/liblega-c.a(_doscan.o)

.rodata         0x9d07a478      0x104
 .rodata        0x9d07a478      0x104 /Applications/microchip/xc32/v2.10/bin/bin/../../lib/gcc/pic32mx/4.8.3/../../../../pic32mx/lib/liblega-c.a(ctype.o)
                0x9d07a478                _ctype

.text.malloc_trim
                0x9d07a57c      0x104
 .text.malloc_trim
                0x9d07a57c      0x104 /Applications/microchip/xc32/v2.10/bin/bin/../../lib/gcc/pic32mx/4.8.3/../../../../pic32mx/lib/liblega-c.a(malloc.o)
                0x9d07a57c                malloc_trim

.text.__ldexpf  0x9d07a680      0x104
 .text.__ldexpf
                0x9d07a680      0x104 /Applications/microchip/xc32/v2.10/bin/bin/../../lib/gcc/pic32mx/4.8.3/../../../../pic32mx/lib/libe.a(_ldexpf.o)
                0x9d07a680                __ldexpf

.text.strncpy   0x9d07a784      0x100
 .text.strncpy  0x9d07a784      0x100 /Applications/microchip/xc32/v2.10/bin/bin/../../lib/gcc/pic32mx/4.8.3/../../../../pic32mx/lib/liblega-c.a(strncpy.o)
                0x9d07a784                strncpy

.text.dptofp    0x9d07a884      0x100
 .text.dptofp   0x9d07a884      0x100 /Applications/microchip/xc32/v2.10/bin/bin/../../lib/gcc/pic32mx/4.8.3/../../../../pic32mx/lib/libm.a(dptofp.o)
                0x9d07a884                dptofp
                0x9d07a884                __truncdfsf2

.text._flsbuf_simple
                0x9d07a984       0xfc
 .text._flsbuf_simple
                0x9d07a984       0xfc /Applications/microchip/xc32/v2.10/bin/bin/../../lib/gcc/pic32mx/4.8.3/../../../../pic32mx/lib/liblega-c.a(_iobfuncs.o)
                0x9d07a984                _flsbuf_simple

.text.strchr    0x9d07aa80       0xf4
 .text.strchr   0x9d07aa80       0xf4 /Applications/microchip/xc32/v2.10/bin/bin/../../lib/gcc/pic32mx/4.8.3/../../../../pic32mx/lib/liblega-c.a(strchr.o)
                0x9d07aa80                strchr

.text._mon_getc
                0x9d07ab74       0xe4
 .text._mon_getc
                0x9d07ab74       0xe4 /Applications/microchip/xc32/v2.10/bin/bin/../../lib/gcc/pic32mx/4.8.3/../../../../pic32mx/lib/libpic32.a(_mon_getc.o)
                0x9d07ab74                _mon_getc

.text.strncmp   0x9d07ac58       0xe0
 .text.strncmp  0x9d07ac58       0xe0 /Applications/microchip/xc32/v2.10/bin/bin/../../lib/gcc/pic32mx/4.8.3/../../../../pic32mx/lib/liblega-c.a(strncmp.o)
                0x9d07ac58                strncmp

.text.general_exception
                0x9d07ad38       0xdc
 .text.general_exception
                0x9d07ad38       0xdc /Applications/microchip/xc32/v2.10/bin/bin/../../lib/gcc/pic32mx/4.8.3/../../../../pic32mx/lib/libpic32.a(general-exception.o)
                0x9d07ad38                _general_exception_context

.text.libm      0x9d07ae14       0xd4
 .text.libm     0x9d07ae14       0xd4 /Applications/microchip/xc32/v2.10/bin/bin/../../lib/gcc/pic32mx/4.8.3/../../../../pic32mx/lib/libm.a(fpmodf.o)
                0x9d07ae14                modff
                0x9d07ae14                fpmodf

.text._mon_putc
                0x9d07aee8       0xd4
 .text._mon_putc
                0x9d07aee8       0xd4 /Applications/microchip/xc32/v2.10/bin/bin/../../lib/gcc/pic32mx/4.8.3/../../../../pic32mx/lib/libpic32.a(_mon_putc.o)
                0x9d07aee8                _mon_putc

.text._sbrk     0x9d07afbc       0xc8
 .text._sbrk    0x9d07afbc       0xc8 /Applications/microchip/xc32/v2.10/bin/bin/../../lib/gcc/pic32mx/4.8.3/../../../../pic32mx/lib/libpic32.a(sbrk.o)
                0x9d07afbc                _sbrk

.text.libm      0x9d07b084       0xb4
 .text.libm     0x9d07b084       0xb4 /Applications/microchip/xc32/v2.10/bin/bin/../../lib/gcc/pic32mx/4.8.3/../../../../pic32mx/lib/libm.a(fpfloo32.o)
                0x9d07b084                fpfloor
                0x9d07b084                floorf

.text           0x9d07b138       0xac
 .text          0x9d07b138       0xac build/default/production/src/Z80/simfun.o
                0x9d07b138                exatoi
                0x9d07b1dc                getkey

.text.repl.constprop.0
                0x9d07b1e4       0xac
 .text.repl.constprop.0
                0x9d07b1e4       0xac /Applications/microchip/xc32/v2.10/bin/bin/../../lib/gcc/pic32mx/4.8.3/../../../../pic32mx/lib/liblega-c.a(_doprnt_cdnopsuxX.eo)

.text.fputc     0x9d07b290       0xac
 .text.fputc    0x9d07b290       0xac /Applications/microchip/xc32/v2.10/bin/bin/../../lib/gcc/pic32mx/4.8.3/../../../../pic32mx/lib/liblega-c.a(fputc.o)
                0x9d07b290                fputc

.text.fptodp    0x9d07b33c       0xac
 .text.fptodp   0x9d07b33c       0xac /Applications/microchip/xc32/v2.10/bin/bin/../../lib/gcc/pic32mx/4.8.3/../../../../pic32mx/lib/libm.a(fptodp.o)
                0x9d07b33c                __extendsfdf2
                0x9d07b33c                fptodp

.text           0x9d07b3e8       0xa8
 .text          0x9d07b3e8       0xa8 /Applications/microchip/xc32/v2.10/bin/bin/../../lib/gcc/pic32mx/4.8.3/../../../../pic32mx/lib/libpic32.a(memset.o)
                0x9d07b3e8                memset

.text._fullexit
                0x9d07b490       0xa4
 .text._fullexit
                0x9d07b490       0xa4 /Applications/microchip/xc32/v2.10/bin/bin/../../lib/gcc/pic32mx/4.8.3/../../../../pic32mx/lib/liblega-c.a(fullexit.o)
                0x9d07b490                _fullexit

.text._o_init   0x9d07b534       0xa4
 .text._o_init  0x9d07b534       0xa4 /Applications/microchip/xc32/v2.10/bin/bin/../../lib/gcc/pic32mx/4.8.3/../../../../pic32mx/lib/liblega-c.a(_ioinit.o)
                0x9d07b534                _o_init

.rodata         0x9d07b5d8       0xa0
 .rodata        0x9d07b5d8       0xa0 build/default/production/src/box_game.o
                0x9d07b5d8                message4
                0x9d07b5e0                message3
                0x9d07b5ec                message2
                0x9d07b5fc                message1
                0x9d07b608                BOX_reference

.text.strcat    0x9d07b678       0x9c
 .text.strcat   0x9d07b678       0x9c /Applications/microchip/xc32/v2.10/bin/bin/../../lib/gcc/pic32mx/4.8.3/../../../../pic32mx/lib/liblega-c.a(strcat.o)
                0x9d07b678                strcat

.text._eat_white
                0x9d07b714       0x9c
 .text._eat_white
                0x9d07b714       0x9c /Applications/microchip/xc32/v2.10/bin/bin/../../lib/gcc/pic32mx/4.8.3/../../../../pic32mx/lib/liblega-c.a(_doscan.o)

.text.repl      0x9d07b7b0       0x9c
 .text.repl     0x9d07b7b0       0x9c /Applications/microchip/xc32/v2.10/bin/bin/../../lib/gcc/pic32mx/4.8.3/../../../../pic32mx/lib/liblega-c.a(_doprnt.o)

.text.fpcmp     0x9d07b84c       0x9c
 .text.fpcmp    0x9d07b84c       0x9c /Applications/microchip/xc32/v2.10/bin/bin/../../lib/gcc/pic32mx/4.8.3/../../../../pic32mx/lib/libm.a(fpcmp.o)
                0x9d07b84c                __lesf2
                0x9d07b84c                __nesf2
                0x9d07b84c                __gtsf2
                0x9d07b84c                __eqsf2
                0x9d07b84c                __ltsf2
                0x9d07b84c                fpcmp
                0x9d07b84c                __gesf2

.text._i_init   0x9d07b8e8       0x98
 .text._i_init  0x9d07b8e8       0x98 /Applications/microchip/xc32/v2.10/bin/bin/../../lib/gcc/pic32mx/4.8.3/../../../../pic32mx/lib/liblega-c.a(_ioinit.o)
                0x9d07b8e8                _i_init

.text           0x9d07b980       0x84
 .text          0x9d07b980       0x84 /Applications/microchip/xc32/v2.10/bin/bin/../../lib/gcc/pic32mx/4.8.3/../../../../pic32mx/lib/libpic32.a(pic32_data_init.o)
                0x9d07b980                __pic32_data_init

.text._fassert  0x9d07ba04       0x84
 .text._fassert
                0x9d07ba04       0x84 /Applications/microchip/xc32/v2.10/bin/bin/../../lib/gcc/pic32mx/4.8.3/../../../../pic32mx/lib/liblega-c.a(fassert.o)
                0x9d07ba04                _fassert

.text._fflush_simple
                0x9d07ba88       0x80
 .text._fflush_simple
                0x9d07ba88       0x80 /Applications/microchip/xc32/v2.10/bin/bin/../../lib/gcc/pic32mx/4.8.3/../../../../pic32mx/lib/liblega-c.a(_iobfuncs.o)
                0x9d07ba88                _fflush_simple

.text._fwrite_simple
                0x9d07bb08       0x80
 .text._fwrite_simple
                0x9d07bb08       0x80 /Applications/microchip/xc32/v2.10/bin/bin/../../lib/gcc/pic32mx/4.8.3/../../../../pic32mx/lib/liblega-c.a(_iobfuncs.o)
                0x9d07bb08                _fwrite_simple

.text.fptoli    0x9d07bb88       0x80
 .text.fptoli   0x9d07bb88       0x80 /Applications/microchip/xc32/v2.10/bin/bin/../../lib/gcc/pic32mx/4.8.3/../../../../pic32mx/lib/libm.a(fptoli.o)
                0x9d07bb88                __fixsfsi
                0x9d07bb88                fptoli
                0x9d07bb88                fptosi

.rodata         0x9d07bc08       0x7c
 .rodata        0x9d07bc08       0x7c build/default/production/src/splash.o
                0x9d07bc08                arc

.text.fgetc     0x9d07bc84       0x78
 .text.fgetc    0x9d07bc84       0x78 /Applications/microchip/xc32/v2.10/bin/bin/../../lib/gcc/pic32mx/4.8.3/../../../../pic32mx/lib/liblega-c.a(fgetc.o)
                0x9d07bc84                fgetc

.text.litodp    0x9d07bcfc       0x78
 .text.litodp   0x9d07bcfc       0x78 /Applications/microchip/xc32/v2.10/bin/bin/../../lib/gcc/pic32mx/4.8.3/../../../../pic32mx/lib/libm.a(litodp.o)
                0x9d07bcfc                __floatsidf
                0x9d07bcfc                litodp

.text._sscanf_cdnopuxX
                0x9d07bd74       0x74
 .text._sscanf_cdnopuxX
                0x9d07bd74       0x74 /Applications/microchip/xc32/v2.10/bin/bin/../../lib/gcc/pic32mx/4.8.3/../../../../pic32mx/lib/liblega-c.a(sscanf_cdnopuxX.eo)
                0x9d07bd74                _sscanf_cdnopuxX

.text           0x9d07bde8       0x70
 .text          0x9d07bde8       0x70 /Applications/microchip/xc32/v2.10/bin/bin/../../lib/gcc/pic32mx/4.8.3/../../../../pic32mx/lib/libpic32.a(setjmp.o)
                0x9d07bde8                setjmp
                0x9d07be1c                longjmp

.rodata         0x9d07be58       0x70
 .rodata        0x9d07be58       0x70 /Applications/microchip/xc32/v2.10/bin/bin/../../lib/gcc/pic32mx/4.8.3/../../../../pic32mx/lib/liblega-c.a(fassert.o)

.text._sprintf_cdnopsuxX
                0x9d07bec8       0x6c
 .text._sprintf_cdnopsuxX
                0x9d07bec8       0x6c /Applications/microchip/xc32/v2.10/bin/bin/../../lib/gcc/pic32mx/4.8.3/../../../../pic32mx/lib/liblega-c.a(sprintf_cdnopsuxX.eo)
                0x9d07bec8                _sprintf_cdnopuxX
                0x9d07bec8                _sprintf_cdnopsuxX

.rodata         0x9d07bf34       0x6c
 .rodata        0x9d07bf34       0x6c /Applications/microchip/xc32/v2.10/bin/bin/../../lib/gcc/pic32mx/4.8.3/../../../../pic32mx/lib/liblega-c.a(_doprnt.o)

.text.memmove   0x9d07bfa0       0x68
 .text.memmove  0x9d07bfa0       0x68 /Applications/microchip/xc32/v2.10/bin/bin/../../lib/gcc/pic32mx/4.8.3/../../../../pic32mx/lib/liblega-c.a(memmove.o)
                0x9d07bfa0                memmove

.text.__sputn   0x9d07c008       0x68
 .text.__sputn  0x9d07c008       0x68 /Applications/microchip/xc32/v2.10/bin/bin/../../lib/gcc/pic32mx/4.8.3/../../../../pic32mx/lib/liblega-c.a(_doprnt.o)

.text._bufalloc
                0x9d07c070       0x68
 .text._bufalloc
                0x9d07c070       0x68 /Applications/microchip/xc32/v2.10/bin/bin/../../lib/gcc/pic32mx/4.8.3/../../../../pic32mx/lib/liblega-c.a(_bufproc.o)
                0x9d07c070                _bufalloc

.text.gsgetc    0x9d07c0d8       0x64
 .text.gsgetc   0x9d07c0d8       0x64 /Applications/microchip/xc32/v2.10/bin/bin/../../lib/gcc/pic32mx/4.8.3/../../../../pic32mx/lib/liblega-c.a(_doscan.o)

.text._buffree  0x9d07c13c       0x64
 .text._buffree
                0x9d07c13c       0x64 /Applications/microchip/xc32/v2.10/bin/bin/../../lib/gcc/pic32mx/4.8.3/../../../../pic32mx/lib/liblega-c.a(_bufproc.o)
                0x9d07c13c                _buffree

.text           0x9d07c1a0       0x60
 .text          0x9d07c1a0       0x60 build/default/production/src/main.o
                0x9d07c1a0                main

.text.sitofp    0x9d07c200       0x60
 .text.sitofp   0x9d07c200       0x60 /Applications/microchip/xc32/v2.10/bin/bin/../../lib/gcc/pic32mx/4.8.3/../../../../pic32mx/lib/libm.a(sitofp.o)
                0x9d07c200                sitofp
                0x9d07c200                __floatsisf
                0x9d07c200                litofp

.text.rand      0x9d07c260       0x58
 .text.rand     0x9d07c260       0x58 /Applications/microchip/xc32/v2.10/bin/bin/../../lib/gcc/pic32mx/4.8.3/../../../../pic32mx/lib/liblega-c.a(rand.o)
                0x9d07c260                rand

.text.main_entry
                0x9d07c2b8       0x54
 .text.main_entry
                0x9d07c2b8       0x54 /Applications/microchip/xc32/v2.10/bin/bin/../../lib/gcc/pic32mx/4.8.3/../../../../pic32mx/lib/./proc/32MX370F512H/crt0_mips32r2.o
                0x9d07c2ec                __crt0_exit

.text.sbrk      0x9d07c30c       0x50
 .text.sbrk     0x9d07c30c       0x50 /Applications/microchip/xc32/v2.10/bin/bin/../../lib/gcc/pic32mx/4.8.3/../../../../pic32mx/lib/libpic32.a(sbrk.o)
                0x9d07c30c                sbrk

.text._mon_write
                0x9d07c35c       0x4c
 .text._mon_write
                0x9d07c35c       0x4c /Applications/microchip/xc32/v2.10/bin/bin/../../lib/gcc/pic32mx/4.8.3/../../../../pic32mx/lib/libpic32.a(_mon_write.o)
                0x9d07c35c                _mon_write

.text._bootstrap_exception_handler
                0x9d07c3a8       0x48
 .text._bootstrap_exception_handler
                0x9d07c3a8       0x48 /Applications/microchip/xc32/v2.10/bin/bin/../../lib/gcc/pic32mx/4.8.3/../../../../pic32mx/lib/libpic32.a(default-bootstrap-exception-handler.o)
                0x9d07c3a8                _bootstrap_exception_handler

.text._general_exception_handler
                0x9d07c3f0       0x48
 .text._general_exception_handler
                0x9d07c3f0       0x48 /Applications/microchip/xc32/v2.10/bin/bin/../../lib/gcc/pic32mx/4.8.3/../../../../pic32mx/lib/libpic32.a(default-general-exception-handler.o)
                0x9d07c3f0                _general_exception_handler

.vector_default
                0x9d07c438       0x48
 .vector_default
                0x9d07c438       0x48 /Applications/microchip/xc32/v2.10/bin/bin/../../lib/gcc/pic32mx/4.8.3/../../../../pic32mx/lib/libpic32.a(defaultinterrupt.o)
                0x9d07c438                _DefaultInterrupt

.rodata         0x9d07c480       0x48
 .rodata        0x9d07c480       0x48 /Applications/microchip/xc32/v2.10/bin/bin/../../lib/gcc/pic32mx/4.8.3/../../../../pic32mx/lib/libm.a(__strtod.o)

.text           0x9d07c4c8       0x44
 .text          0x9d07c4c8       0x44 /Applications/microchip/xc32/v2.10/bin/bin/../../lib/gcc/pic32mx/4.8.3/../../../../pic32mx/lib/pic32_software_reset.o
                0x9d07c4c8                __pic32_software_reset

.text.srand     0x9d07c50c       0x44
 .text.srand    0x9d07c50c       0x44 /Applications/microchip/xc32/v2.10/bin/bin/../../lib/gcc/pic32mx/4.8.3/../../../../pic32mx/lib/liblega-c.a(rand.o)
                0x9d07c50c                srand

.text._printf_cdnopuxX
                0x9d07c550       0x40
 .text._printf_cdnopuxX
                0x9d07c550       0x40 /Applications/microchip/xc32/v2.10/bin/bin/../../lib/gcc/pic32mx/4.8.3/../../../../pic32mx/lib/liblega-c.a(printf_cdnopuxX.eo)
                0x9d07c550                _printf_cdnopuxX

.text._io_exit  0x9d07c590       0x40
 .text._io_exit
                0x9d07c590       0x40 /Applications/microchip/xc32/v2.10/bin/bin/../../lib/gcc/pic32mx/4.8.3/../../../../pic32mx/lib/liblega-c.a(_doscan.o)

.text           0x9d07c5d0       0x80
 .text          0x9d07c5d0       0x40 /Applications/microchip/xc32/v2.10/bin/bin/../../lib/gcc/pic32mx/4.8.3/libgcc.a(_lshrdi3.o)
                0x9d07c5d0                __lshrdi3
 .text          0x9d07c610       0x40 /Applications/microchip/xc32/v2.10/bin/bin/../../lib/gcc/pic32mx/4.8.3/libgcc.a(_ashldi3.o)
                0x9d07c610                __ashldi3

.text._weak_pthread_once
                0x9d07c650       0x38
 .text._weak_pthread_once
                0x9d07c650       0x38 /Applications/microchip/xc32/v2.10/bin/bin/../../lib/gcc/pic32mx/4.8.3/../../../../pic32mx/lib/liblega-c.a(stubs.o)
                0x9d07c650                _weak_pthread_once
                0x9d07c650                pthread_once
                0x9d07c650                _pthread_once

.text.INTEnableSystemMultiVectoredInt
                0x9d07c688       0x34
 .text.INTEnableSystemMultiVectoredInt
                0x9d07c688       0x34 /Applications/microchip/xc32/v2.10/bin/bin/../../lib/gcc/pic32mx/4.8.3/../../../../pic32mx/lib/libmchp_peripheral_32MX370F512H.a(int_enable_mv_int_lib.o)
                0x9d07c688                INTEnableSystemMultiVectoredInt

.text._filbuf_simple
                0x9d07c6bc       0x34
 .text._filbuf_simple
                0x9d07c6bc       0x34 /Applications/microchip/xc32/v2.10/bin/bin/../../lib/gcc/pic32mx/4.8.3/../../../../pic32mx/lib/liblega-c.a(_iobfuncs.o)
                0x9d07c6bc                _filbuf_simple

.text._fsync_simple
                0x9d07c6f0       0x30
 .text._fsync_simple
                0x9d07c6f0       0x30 /Applications/microchip/xc32/v2.10/bin/bin/../../lib/gcc/pic32mx/4.8.3/../../../../pic32mx/lib/liblega-c.a(_iobfuncs.o)
                0x9d07c6f0                _fsync_simple

.rodata         0x9d07c720       0x30
 .rodata        0x9d07c720       0x30 /Applications/microchip/xc32/v2.10/bin/bin/../../lib/gcc/pic32mx/4.8.3/../../../../pic32mx/lib/liblega-c.a(_doscan.o)

.text.fprintf   0x9d07c750       0x30
 .text.fprintf  0x9d07c750       0x30 /Applications/microchip/xc32/v2.10/bin/bin/../../lib/gcc/pic32mx/4.8.3/../../../../pic32mx/lib/liblega-c.a(fprintf.o)
                0x9d07c750                fprintf

.text._cleanup  0x9d07c780       0x30
 .text._cleanup
                0x9d07c780       0x30 /Applications/microchip/xc32/v2.10/bin/bin/../../lib/gcc/pic32mx/4.8.3/../../../../pic32mx/lib/liblega-c.a(_cleanup.o)
                0x9d07c780                _cleanup

.text._stub_sbd_memlayout
                0x9d07c7b0       0x2c
 .text._stub_sbd_memlayout
                0x9d07c7b0       0x2c /Applications/microchip/xc32/v2.10/bin/bin/../../lib/gcc/pic32mx/4.8.3/../../../../pic32mx/lib/libpic32.a(sbrk.o)
                0x9d07c7b0                _stub_sbd_memlayout
                0x9d07c7b0                _sbd_memlayout

.rodata         0x9d07c7dc       0x28
 .rodata        0x9d07c7dc       0x28 /Applications/microchip/xc32/v2.10/bin/bin/../../lib/gcc/pic32mx/4.8.3/../../../../pic32mx/lib/liblega-c.a(_doprnt_cdnopsuxX.eo)

.text.strtod    0x9d07c804       0x28
 .text.strtod   0x9d07c804       0x28 /Applications/microchip/xc32/v2.10/bin/bin/../../lib/gcc/pic32mx/4.8.3/../../../../pic32mx/lib/liblega-c.a(strtod.o)
                0x9d07c804                strtod

.text.tolower   0x9d07c82c       0x24
 .text.tolower  0x9d07c82c       0x24 /Applications/microchip/xc32/v2.10/bin/bin/../../lib/gcc/pic32mx/4.8.3/../../../../pic32mx/lib/liblega-c.a(ctypef.o)
                0x9d07c82c                tolower

.text.toupper   0x9d07c850       0x24
 .text.toupper  0x9d07c850       0x24 /Applications/microchip/xc32/v2.10/bin/bin/../../lib/gcc/pic32mx/4.8.3/../../../../pic32mx/lib/liblega-c.a(ctypef.o)
                0x9d07c850                toupper

.text.putchar   0x9d07c874       0x24
 .text.putchar  0x9d07c874       0x24 /Applications/microchip/xc32/v2.10/bin/bin/../../lib/gcc/pic32mx/4.8.3/../../../../pic32mx/lib/liblega-c.a(fputc.o)
                0x9d07c874                putchar

.text.getchar   0x9d07c898       0x24
 .text.getchar  0x9d07c898       0x24 /Applications/microchip/xc32/v2.10/bin/bin/../../lib/gcc/pic32mx/4.8.3/../../../../pic32mx/lib/liblega-c.a(fgetc.o)
                0x9d07c898                getchar

.text.rand_r    0x9d07c8bc       0x20
 .text.rand_r   0x9d07c8bc       0x20 /Applications/microchip/xc32/v2.10/bin/bin/../../lib/gcc/pic32mx/4.8.3/../../../../pic32mx/lib/liblega-c.a(rand.o)
                0x9d07c8bc                rand_r

.rodata         0x9d07c8dc       0x38
 .rodata        0x9d07c8dc       0x1c build/default/production/src/basic/tokenizer.o
 .rodata        0x9d07c8f8       0x1c build/default/production/src/basic/tokenizer_fast.o

.text.INTRestoreInterrupts
                0x9d07c914       0x1c
 .text.INTRestoreInterrupts
                0x9d07c914       0x1c /Applications/microchip/xc32/v2.10/bin/bin/../../lib/gcc/pic32mx/4.8.3/../../../../pic32mx/lib/libmchp_peripheral_32MX370F512H.a(int_restore_interrupts_lib.o)
                0x9d07c914                INTRestoreInterrupts

.text._vfprintf_cdnopsuxX
                0x9d07c930       0x1c
 .text._vfprintf_cdnopsuxX
                0x9d07c930       0x1c /Applications/microchip/xc32/v2.10/bin/bin/../../lib/gcc/pic32mx/4.8.3/../../../../pic32mx/lib/liblega-c.a(_doprnt_cdnopsuxX.eo)
                0x9d07c930                _vfprintf_cdnopsuxX

.text.putc      0x9d07c94c       0x1c
 .text.putc     0x9d07c94c       0x1c /Applications/microchip/xc32/v2.10/bin/bin/../../lib/gcc/pic32mx/4.8.3/../../../../pic32mx/lib/liblega-c.a(fputc.o)
                0x9d07c94c                putc

.text.vfscanf   0x9d07c968       0x1c
 .text.vfscanf  0x9d07c968       0x1c /Applications/microchip/xc32/v2.10/bin/bin/../../lib/gcc/pic32mx/4.8.3/../../../../pic32mx/lib/liblega-c.a(_doscan.o)
                0x9d07c968                vfscanf

.text.strtof    0x9d07c984       0x1c
 .text.strtof   0x9d07c984       0x1c /Applications/microchip/xc32/v2.10/bin/bin/../../lib/gcc/pic32mx/4.8.3/../../../../pic32mx/lib/liblega-c.a(strtof.o)
                0x9d07c984                strtof

.text.vfprintf  0x9d07c9a0       0x1c
 .text.vfprintf
                0x9d07c9a0       0x1c /Applications/microchip/xc32/v2.10/bin/bin/../../lib/gcc/pic32mx/4.8.3/../../../../pic32mx/lib/liblega-c.a(_doprnt.o)
                0x9d07c9a0                vfprintf

.text.getc      0x9d07c9bc       0x1c
 .text.getc     0x9d07c9bc       0x1c /Applications/microchip/xc32/v2.10/bin/bin/../../lib/gcc/pic32mx/4.8.3/../../../../pic32mx/lib/liblega-c.a(fgetc.o)
                0x9d07c9bc                getc

.text.negdf2    0x9d07c9d8       0x1c
 .text.negdf2   0x9d07c9d8       0x1c /Applications/microchip/xc32/v2.10/bin/bin/../../lib/gcc/pic32mx/4.8.3/../../../../pic32mx/lib/libm.a(negdf2.o)
                0x9d07c9d8                __negdf2

.text.CheKseg0CacheOff
                0x9d07c9f4       0x18
 .text.CheKseg0CacheOff
                0x9d07c9f4       0x18 /Applications/microchip/xc32/v2.10/bin/bin/../../lib/gcc/pic32mx/4.8.3/../../../../pic32mx/lib/libmchp_peripheral_32MX370F512H.a(pcache.o)
                0x9d07c9f4                CheKseg0CacheOff

.text.CheKseg0CacheOn
                0x9d07ca0c       0x18
 .text.CheKseg0CacheOn
                0x9d07ca0c       0x18 /Applications/microchip/xc32/v2.10/bin/bin/../../lib/gcc/pic32mx/4.8.3/../../../../pic32mx/lib/libmchp_peripheral_32MX370F512H.a(pcache.o)
                0x9d07ca0c                CheKseg0CacheOn

.text           0x9d07ca24       0x18
 .text          0x9d07ca24       0x18 /Applications/microchip/xc32/v2.10/bin/bin/../../lib/gcc/pic32mx/4.8.3/../../../../pic32mx/lib/libpic32.a(default-nmi-handler.o)
                0x9d07ca24                _nmi_handler

.text.isalnum   0x9d07ca3c       0x18
 .text.isalnum  0x9d07ca3c       0x18 /Applications/microchip/xc32/v2.10/bin/bin/../../lib/gcc/pic32mx/4.8.3/../../../../pic32mx/lib/liblega-c.a(ctypef.o)
                0x9d07ca3c                isalnum

.text.isalpha   0x9d07ca54       0x18
 .text.isalpha  0x9d07ca54       0x18 /Applications/microchip/xc32/v2.10/bin/bin/../../lib/gcc/pic32mx/4.8.3/../../../../pic32mx/lib/liblega-c.a(ctypef.o)
                0x9d07ca54                isalpha

.text.iscntrl   0x9d07ca6c       0x18
 .text.iscntrl  0x9d07ca6c       0x18 /Applications/microchip/xc32/v2.10/bin/bin/../../lib/gcc/pic32mx/4.8.3/../../../../pic32mx/lib/liblega-c.a(ctypef.o)
                0x9d07ca6c                iscntrl

.text.isdigit   0x9d07ca84       0x18
 .text.isdigit  0x9d07ca84       0x18 /Applications/microchip/xc32/v2.10/bin/bin/../../lib/gcc/pic32mx/4.8.3/../../../../pic32mx/lib/liblega-c.a(ctypef.o)
                0x9d07ca84                isdigit

.text.isgraph   0x9d07ca9c       0x18
 .text.isgraph  0x9d07ca9c       0x18 /Applications/microchip/xc32/v2.10/bin/bin/../../lib/gcc/pic32mx/4.8.3/../../../../pic32mx/lib/liblega-c.a(ctypef.o)
                0x9d07ca9c                isgraph

.text.islower   0x9d07cab4       0x18
 .text.islower  0x9d07cab4       0x18 /Applications/microchip/xc32/v2.10/bin/bin/../../lib/gcc/pic32mx/4.8.3/../../../../pic32mx/lib/liblega-c.a(ctypef.o)
                0x9d07cab4                islower

.text.isprint   0x9d07cacc       0x18
 .text.isprint  0x9d07cacc       0x18 /Applications/microchip/xc32/v2.10/bin/bin/../../lib/gcc/pic32mx/4.8.3/../../../../pic32mx/lib/liblega-c.a(ctypef.o)
                0x9d07cacc                isprint

.text.ispunct   0x9d07cae4       0x18
 .text.ispunct  0x9d07cae4       0x18 /Applications/microchip/xc32/v2.10/bin/bin/../../lib/gcc/pic32mx/4.8.3/../../../../pic32mx/lib/liblega-c.a(ctypef.o)
                0x9d07cae4                ispunct

.text.isspace   0x9d07cafc       0x18
 .text.isspace  0x9d07cafc       0x18 /Applications/microchip/xc32/v2.10/bin/bin/../../lib/gcc/pic32mx/4.8.3/../../../../pic32mx/lib/liblega-c.a(ctypef.o)
                0x9d07cafc                isspace

.text.isupper   0x9d07cb14       0x18
 .text.isupper  0x9d07cb14       0x18 /Applications/microchip/xc32/v2.10/bin/bin/../../lib/gcc/pic32mx/4.8.3/../../../../pic32mx/lib/liblega-c.a(ctypef.o)
                0x9d07cb14                isupper

.text.isxdigit  0x9d07cb2c       0x18
 .text.isxdigit
                0x9d07cb2c       0x18 /Applications/microchip/xc32/v2.10/bin/bin/../../lib/gcc/pic32mx/4.8.3/../../../../pic32mx/lib/liblega-c.a(ctypef.o)
                0x9d07cb2c                isxdigit

.rodata         0x9d07cb44       0x18
 .rodata        0x9d07cb44       0x18 /Applications/microchip/xc32/v2.10/bin/bin/../../lib/gcc/pic32mx/4.8.3/../../../../pic32mx/lib/libm.a(__strtof.o)

.text._io_exit  0x9d07cb5c       0x14
 .text._io_exit
                0x9d07cb5c       0x14 /Applications/microchip/xc32/v2.10/bin/bin/../../lib/gcc/pic32mx/4.8.3/../../../../pic32mx/lib/liblega-c.a(_doprnt_cdnopsuxX.eo)
                0x9d07cb5c                _io_exit

.rodata         0x9d07cb70       0x14
 .rodata        0x9d07cb70       0x14 /Applications/microchip/xc32/v2.10/bin/bin/../../lib/gcc/pic32mx/4.8.3/../../../../pic32mx/lib/liblega-c.a(_iobdata.o)
                0x9d07cb70                _io_funcs

.text._io_exit  0x9d07cb84       0x14
 .text._io_exit
                0x9d07cb84       0x14 /Applications/microchip/xc32/v2.10/bin/bin/../../lib/gcc/pic32mx/4.8.3/../../../../pic32mx/lib/liblega-c.a(_iobfuncs.o)

.rodata         0x9d07cb98       0x14
 .rodata        0x9d07cb98       0x14 /Applications/microchip/xc32/v2.10/bin/bin/../../lib/gcc/pic32mx/4.8.3/../../../../pic32mx/lib/liblega-c.a(_iobstring.o)
                0x9d07cb98                _io_strfuncs

.text._io_exit  0x9d07cbac       0x14
 .text._io_exit
                0x9d07cbac       0x14 /Applications/microchip/xc32/v2.10/bin/bin/../../lib/gcc/pic32mx/4.8.3/../../../../pic32mx/lib/liblega-c.a(_doprnt.o)

.text.negsf2    0x9d07cbc0       0x14
 .text.negsf2   0x9d07cbc0       0x14 /Applications/microchip/xc32/v2.10/bin/bin/../../lib/gcc/pic32mx/4.8.3/../../../../pic32mx/lib/libm.a(negsf2.o)
                0x9d07cbc0                __negsf2

.rodata         0x9d07cbd4        0xc
 .rodata        0x9d07cbd4        0xc build/default/production/src/snake.o

.text.abort     0x9d07cbe0        0xc
 .text.abort    0x9d07cbe0        0xc /Applications/microchip/xc32/v2.10/bin/bin/../../lib/gcc/pic32mx/4.8.3/../../../../pic32mx/lib/liblega-c.a(abort.o)
                0x9d07cbe0                abort

.text.INTDisableInterrupts
                0x9d07cbec        0x8
 .text.INTDisableInterrupts
                0x9d07cbec        0x8 /Applications/microchip/xc32/v2.10/bin/bin/../../lib/gcc/pic32mx/4.8.3/../../../../pic32mx/lib/libmchp_peripheral_32MX370F512H.a(int_disable_interrupts_lib.o)
                0x9d07cbec                INTDisableInterrupts

.text.INTEnableInterrupts
                0x9d07cbf4        0x8
 .text.INTEnableInterrupts
                0x9d07cbf4        0x8 /Applications/microchip/xc32/v2.10/bin/bin/../../lib/gcc/pic32mx/4.8.3/../../../../pic32mx/lib/libmchp_peripheral_32MX370F512H.a(int_enable_interrupts_lib.o)
                0x9d07cbf4                INTEnableInterrupts

.text._on_reset
                0x9d07cbfc        0x8
 .text._on_reset
                0x9d07cbfc        0x8 /Applications/microchip/xc32/v2.10/bin/bin/../../lib/gcc/pic32mx/4.8.3/../../../../pic32mx/lib/libpic32.a(default-on-reset.o)
                0x9d07cbfc                _on_reset

.text._on_bootstrap
                0x9d07cc04        0x8
 .text._on_bootstrap
                0x9d07cc04        0x8 /Applications/microchip/xc32/v2.10/bin/bin/../../lib/gcc/pic32mx/4.8.3/../../../../pic32mx/lib/libpic32.a(default-on-bootstrap.o)
                0x9d07cc04                _on_bootstrap

.text.isascii   0x9d07cc0c        0x8
 .text.isascii  0x9d07cc0c        0x8 /Applications/microchip/xc32/v2.10/bin/bin/../../lib/gcc/pic32mx/4.8.3/../../../../pic32mx/lib/liblega-c.a(ctypef.o)
                0x9d07cc0c                isascii

.text.toascii   0x9d07cc14        0x8
 .text.toascii  0x9d07cc14        0x8 /Applications/microchip/xc32/v2.10/bin/bin/../../lib/gcc/pic32mx/4.8.3/../../../../pic32mx/lib/liblega-c.a(ctypef.o)
                0x9d07cc14                toascii

.text._tolower  0x9d07cc1c        0x8
 .text._tolower
                0x9d07cc1c        0x8 /Applications/microchip/xc32/v2.10/bin/bin/../../lib/gcc/pic32mx/4.8.3/../../../../pic32mx/lib/liblega-c.a(ctypef.o)
                0x9d07cc1c                _tolower

.text._toupper  0x9d07cc24        0x8
 .text._toupper
                0x9d07cc24        0x8 /Applications/microchip/xc32/v2.10/bin/bin/../../lib/gcc/pic32mx/4.8.3/../../../../pic32mx/lib/liblega-c.a(ctypef.o)
                0x9d07cc24                _toupper

.text._weak_pthread_mutex_init
                0x9d07cc2c        0x8
 .text._weak_pthread_mutex_init
                0x9d07cc2c        0x8 /Applications/microchip/xc32/v2.10/bin/bin/../../lib/gcc/pic32mx/4.8.3/../../../../pic32mx/lib/liblega-c.a(stubs.o)
                0x9d07cc2c                _weak_pthread_mutex_init
                0x9d07cc2c                pthread_mutex_init

.text._weak_pthread_mutex_destroy
                0x9d07cc34        0x8
 .text._weak_pthread_mutex_destroy
                0x9d07cc34        0x8 /Applications/microchip/xc32/v2.10/bin/bin/../../lib/gcc/pic32mx/4.8.3/../../../../pic32mx/lib/liblega-c.a(stubs.o)
                0x9d07cc34                _weak_pthread_mutex_destroy
                0x9d07cc34                pthread_mutex_destroy

.text._weak_pthread_mutex_lock
                0x9d07cc3c        0x8
 .text._weak_pthread_mutex_lock
                0x9d07cc3c        0x8 /Applications/microchip/xc32/v2.10/bin/bin/../../lib/gcc/pic32mx/4.8.3/../../../../pic32mx/lib/liblega-c.a(stubs.o)
                0x9d07cc3c                _weak_pthread_mutex_lock
                0x9d07cc3c                pthread_mutex_lock

.text._weak_pthread_mutex_trylock
                0x9d07cc44        0x8
 .text._weak_pthread_mutex_trylock
                0x9d07cc44        0x8 /Applications/microchip/xc32/v2.10/bin/bin/../../lib/gcc/pic32mx/4.8.3/../../../../pic32mx/lib/liblega-c.a(stubs.o)
                0x9d07cc44                _weak_pthread_mutex_trylock
                0x9d07cc44                pthread_mutex_trylock

.text._weak_pthread_mutex_unlock
                0x9d07cc4c        0x8
 .text._weak_pthread_mutex_unlock
                0x9d07cc4c        0x8 /Applications/microchip/xc32/v2.10/bin/bin/../../lib/gcc/pic32mx/4.8.3/../../../../pic32mx/lib/liblega-c.a(stubs.o)
                0x9d07cc4c                _weak_pthread_mutex_unlock
                0x9d07cc4c                pthread_mutex_unlock

.text._weak_pthread_mutex_setname_np
                0x9d07cc54        0x8
 .text._weak_pthread_mutex_setname_np
                0x9d07cc54        0x8 /Applications/microchip/xc32/v2.10/bin/bin/../../lib/gcc/pic32mx/4.8.3/../../../../pic32mx/lib/liblega-c.a(stubs.o)
                0x9d07cc54                pthread_mutex_setname_np
                0x9d07cc54                _weak_pthread_mutex_setname_np

.text._weak_pthread_mutexattr_init
                0x9d07cc5c        0x8
 .text._weak_pthread_mutexattr_init
                0x9d07cc5c        0x8 /Applications/microchip/xc32/v2.10/bin/bin/../../lib/gcc/pic32mx/4.8.3/../../../../pic32mx/lib/liblega-c.a(stubs.o)
                0x9d07cc5c                _weak_pthread_mutexattr_init
                0x9d07cc5c                pthread_mutexattr_init

.text._weak_pthread_mutexattr_destroy
                0x9d07cc64        0x8
 .text._weak_pthread_mutexattr_destroy
                0x9d07cc64        0x8 /Applications/microchip/xc32/v2.10/bin/bin/../../lib/gcc/pic32mx/4.8.3/../../../../pic32mx/lib/liblega-c.a(stubs.o)
                0x9d07cc64                pthread_mutexattr_destroy
                0x9d07cc64                _weak_pthread_mutexattr_destroy

.text._weak_pthread_mutexattr_setname_np
                0x9d07cc6c        0x8
 .text._weak_pthread_mutexattr_setname_np
                0x9d07cc6c        0x8 /Applications/microchip/xc32/v2.10/bin/bin/../../lib/gcc/pic32mx/4.8.3/../../../../pic32mx/lib/liblega-c.a(stubs.o)
                0x9d07cc6c                _weak_pthread_mutexattr_setname_np
                0x9d07cc6c                pthread_mutexattr_setname_np

.text._weak_pthread_mutexattr_settype_np
                0x9d07cc74        0x8
 .text._weak_pthread_mutexattr_settype_np
                0x9d07cc74        0x8 /Applications/microchip/xc32/v2.10/bin/bin/../../lib/gcc/pic32mx/4.8.3/../../../../pic32mx/lib/liblega-c.a(stubs.o)
                0x9d07cc74                _weak_pthread_mutexattr_settype_np
                0x9d07cc74                pthread_mutexattr_settype_np

.text._weak_pthread_sysconf_np
                0x9d07cc7c        0x8
 .text._weak_pthread_sysconf_np
                0x9d07cc7c        0x8 /Applications/microchip/xc32/v2.10/bin/bin/../../lib/gcc/pic32mx/4.8.3/../../../../pic32mx/lib/liblega-c.a(stubs.o)
                0x9d07cc7c                _weak_pthread_sysconf_np
                0x9d07cc7c                pthread_sysconf_np

.text._weak_pthread_sigdisable_np
                0x9d07cc84        0x8
 .text._weak_pthread_sigdisable_np
                0x9d07cc84        0x8 /Applications/microchip/xc32/v2.10/bin/bin/../../lib/gcc/pic32mx/4.8.3/../../../../pic32mx/lib/liblega-c.a(stubs.o)
                0x9d07cc84                _weak_pthread_sigdisable_np
                0x9d07cc84                pthread_sigdisable_np

.text._weak_pthread_sigrestore_np
                0x9d07cc8c        0x8
 .text._weak_pthread_sigrestore_np
                0x9d07cc8c        0x8 /Applications/microchip/xc32/v2.10/bin/bin/../../lib/gcc/pic32mx/4.8.3/../../../../pic32mx/lib/liblega-c.a(stubs.o)
                0x9d07cc8c                pthread_sigrestore_np
                0x9d07cc8c                _weak_pthread_sigrestore_np

.text._weak__pthread_cleanup_push
                0x9d07cc94        0x8
 .text._weak__pthread_cleanup_push
                0x9d07cc94        0x8 /Applications/microchip/xc32/v2.10/bin/bin/../../lib/gcc/pic32mx/4.8.3/../../../../pic32mx/lib/liblega-c.a(stubs.o)
                0x9d07cc94                _weak__pthread_cleanup_push
                0x9d07cc94                _pthread_cleanup_push

.text._weak__pthread_cleanup_pop
                0x9d07cc9c        0x8
 .text._weak__pthread_cleanup_pop
                0x9d07cc9c        0x8 /Applications/microchip/xc32/v2.10/bin/bin/../../lib/gcc/pic32mx/4.8.3/../../../../pic32mx/lib/liblega-c.a(stubs.o)
                0x9d07cc9c                _pthread_cleanup_pop
                0x9d07cc9c                _weak__pthread_cleanup_pop

.text._weak__pthread_cleanup_push_defer
                0x9d07cca4        0x8
 .text._weak__pthread_cleanup_push_defer
                0x9d07cca4        0x8 /Applications/microchip/xc32/v2.10/bin/bin/../../lib/gcc/pic32mx/4.8.3/../../../../pic32mx/lib/liblega-c.a(stubs.o)
                0x9d07cca4                _weak__pthread_cleanup_push_defer
                0x9d07cca4                _pthread_cleanup_push_defer

.text._weak__pthread_cleanup_pop_restore
                0x9d07ccac        0x8
 .text._weak__pthread_cleanup_pop_restore
                0x9d07ccac        0x8 /Applications/microchip/xc32/v2.10/bin/bin/../../lib/gcc/pic32mx/4.8.3/../../../../pic32mx/lib/liblega-c.a(stubs.o)
                0x9d07ccac                _pthread_cleanup_pop_restore
                0x9d07ccac                _weak__pthread_cleanup_pop_restore

.text._weak_pthread_key_create
                0x9d07ccb4        0x8
 .text._weak_pthread_key_create
                0x9d07ccb4        0x8 /Applications/microchip/xc32/v2.10/bin/bin/../../lib/gcc/pic32mx/4.8.3/../../../../pic32mx/lib/liblega-c.a(stubs.o)
                0x9d07ccb4                pthread_key_create
                0x9d07ccb4                _weak_pthread_key_create

.text._weak_pthread_setspecific
                0x9d07ccbc        0x8
 .text._weak_pthread_setspecific
                0x9d07ccbc        0x8 /Applications/microchip/xc32/v2.10/bin/bin/../../lib/gcc/pic32mx/4.8.3/../../../../pic32mx/lib/liblega-c.a(stubs.o)
                0x9d07ccbc                _weak_pthread_setspecific
                0x9d07ccbc                pthread_setspecific

.text._weak_pthread_getspecific
                0x9d07ccc4        0x8
 .text._weak_pthread_getspecific
                0x9d07ccc4        0x8 /Applications/microchip/xc32/v2.10/bin/bin/../../lib/gcc/pic32mx/4.8.3/../../../../pic32mx/lib/liblega-c.a(stubs.o)
                0x9d07ccc4                pthread_getspecific
                0x9d07ccc4                _weak_pthread_getspecific

.text._weak__libc_private_storage
                0x9d07cccc        0x8
 .text._weak__libc_private_storage
                0x9d07cccc        0x8 /Applications/microchip/xc32/v2.10/bin/bin/../../lib/gcc/pic32mx/4.8.3/../../../../pic32mx/lib/liblega-c.a(stubs.o)
                0x9d07cccc                _libc_private_storage
                0x9d07cccc                _weak__libc_private_storage

.text._filbuf_string
                0x9d07ccd4        0x8
 .text._filbuf_string
                0x9d07ccd4        0x8 /Applications/microchip/xc32/v2.10/bin/bin/../../lib/gcc/pic32mx/4.8.3/../../../../pic32mx/lib/liblega-c.a(_iobstring.o)

.text._flsbuf_string
                0x9d07ccdc        0x8
 .text._flsbuf_string
                0x9d07ccdc        0x8 /Applications/microchip/xc32/v2.10/bin/bin/../../lib/gcc/pic32mx/4.8.3/../../../../pic32mx/lib/liblega-c.a(_iobstring.o)

.text._fflush_string
                0x9d07cce4        0x8
 .text._fflush_string
                0x9d07cce4        0x8 /Applications/microchip/xc32/v2.10/bin/bin/../../lib/gcc/pic32mx/4.8.3/../../../../pic32mx/lib/liblega-c.a(_iobstring.o)

.text._fwrite_string
                0x9d07ccec        0x8
 .text._fwrite_string
                0x9d07ccec        0x8 /Applications/microchip/xc32/v2.10/bin/bin/../../lib/gcc/pic32mx/4.8.3/../../../../pic32mx/lib/liblega-c.a(_iobstring.o)

.text._fsync_string
                0x9d07ccf4        0x8
 .text._fsync_string
                0x9d07ccf4        0x8 /Applications/microchip/xc32/v2.10/bin/bin/../../lib/gcc/pic32mx/4.8.3/../../../../pic32mx/lib/liblega-c.a(_iobstring.o)

.text.getpagesize
                0x9d07ccfc        0x8
 .text.getpagesize
                0x9d07ccfc        0x8 /Applications/microchip/xc32/v2.10/bin/bin/../../lib/gcc/pic32mx/4.8.3/../../../../pic32mx/lib/libpic32.a(sbrk.o)
                0x9d07ccfc                getpagesize

.text._exit     0x9d07cd04        0x8
 .text._exit    0x9d07cd04        0x8 /Applications/microchip/xc32/v2.10/bin/bin/../../lib/gcc/pic32mx/4.8.3/../../../../pic32mx/lib/libpic32.a(_exit.o)
                0x9d07cd04                _exit

.text.isatty    0x9d07cd0c        0x8
 .text.isatty   0x9d07cd0c        0x8 /Applications/microchip/xc32/v2.10/bin/bin/../../lib/gcc/pic32mx/4.8.3/../../../../pic32mx/lib/libpic32.a(isatty.o)
                0x9d07cd0c                isatty

.text%z315      0x00000000        0x0
 .text          0x00000000        0x0 /Applications/microchip/xc32/v2.10/bin/bin/../../lib/gcc/pic32mx/4.8.3/../../../../pic32mx/lib/libpic32.a(_mon_putc.o)

.text%z316      0x00000000        0x0
 .text          0x00000000        0x0 /Applications/microchip/xc32/v2.10/bin/bin/../../lib/gcc/pic32mx/4.8.3/../../../../pic32mx/lib/libpic32.a(xc32_uart.o)

.text%z317      0x00000000        0x0
 .text          0x00000000        0x0 /Applications/microchip/xc32/v2.10/bin/bin/../../lib/gcc/pic32mx/4.8.3/../../../../pic32mx/lib/libpic32.a(_mon_write.o)

.text%z318      0x00000000        0x0
 .text          0x00000000        0x0 /Applications/microchip/xc32/v2.10/bin/bin/../../lib/gcc/pic32mx/4.8.3/../../../../pic32mx/lib/libpic32.a(_mon_getc.o)

.text%z319      0x00000000        0x0
 .text          0x00000000        0x0 /Applications/microchip/xc32/v2.10/bin/bin/../../lib/gcc/pic32mx/4.8.3/../../../../pic32mx/lib/libpic32.a(isatty.o)

.text%z320      0x00000000        0x0
 .text          0x00000000        0x0 /Applications/microchip/xc32/v2.10/bin/bin/../../lib/gcc/pic32mx/4.8.3/../../../../pic32mx/lib/libpic32.a(_exit.o)

.text%z321      0x00000000        0x0
 .text          0x00000000        0x0 /Applications/microchip/xc32/v2.10/bin/bin/../../lib/gcc/pic32mx/4.8.3/../../../../pic32mx/lib/libpic32.a(sbrk.o)

.text%z322      0x00000000        0x0
 .text          0x00000000        0x0 /Applications/microchip/xc32/v2.10/bin/bin/../../lib/gcc/pic32mx/4.8.3/../../../../pic32mx/lib/libe.a(_ldexpf.o)

.text%z323      0x00000000        0x0
 .text          0x00000000        0x0 /Applications/microchip/xc32/v2.10/bin/bin/../../lib/gcc/pic32mx/4.8.3/../../../../pic32mx/lib/libe.a(_ldexp.o)

.text%z324      0x00000000        0x0
 .text          0x00000000        0x0 /Applications/microchip/xc32/v2.10/bin/bin/../../lib/gcc/pic32mx/4.8.3/../../../../pic32mx/lib/libm.a(negsf2.o)

.text%z325      0x00000000        0x0
 .text          0x00000000        0x0 /Applications/microchip/xc32/v2.10/bin/bin/../../lib/gcc/pic32mx/4.8.3/../../../../pic32mx/lib/libm.a(negdf2.o)

.text%z326      0x00000000        0x0
 .text          0x00000000        0x0 /Applications/microchip/xc32/v2.10/bin/bin/../../lib/gcc/pic32mx/4.8.3/../../../../pic32mx/lib/libm.a(litodp.o)

.text%z327      0x00000000        0x0
 .text          0x00000000        0x0 /Applications/microchip/xc32/v2.10/bin/bin/../../lib/gcc/pic32mx/4.8.3/../../../../pic32mx/lib/libm.a(dp32subadd.o)

.text%z328      0x00000000        0x0
 .text          0x00000000        0x0 /Applications/microchip/xc32/v2.10/bin/bin/../../lib/gcc/pic32mx/4.8.3/../../../../pic32mx/lib/libm.a(dp32mul.o)

.text%z329      0x00000000        0x0
 .text          0x00000000        0x0 /Applications/microchip/xc32/v2.10/bin/bin/../../lib/gcc/pic32mx/4.8.3/../../../../pic32mx/lib/libm.a(dp32div.o)

.text%z330      0x00000000        0x0
 .text          0x00000000        0x0 /Applications/microchip/xc32/v2.10/bin/bin/../../lib/gcc/pic32mx/4.8.3/../../../../pic32mx/lib/libm.a(__strtof.o)

.text%z331      0x00000000        0x0
 .text          0x00000000        0x0 /Applications/microchip/xc32/v2.10/bin/bin/../../lib/gcc/pic32mx/4.8.3/../../../../pic32mx/lib/libm.a(__strtod.o)

.text%z332      0x00000000        0x0
 .text          0x00000000        0x0 /Applications/microchip/xc32/v2.10/bin/bin/../../lib/gcc/pic32mx/4.8.3/../../../../pic32mx/lib/libm.a(sitofp.o)

.text%z333      0x00000000        0x0
 .text          0x00000000        0x0 /Applications/microchip/xc32/v2.10/bin/bin/../../lib/gcc/pic32mx/4.8.3/../../../../pic32mx/lib/libm.a(fptoli.o)

.text%z334      0x00000000        0x0
 .text          0x00000000        0x0 /Applications/microchip/xc32/v2.10/bin/bin/../../lib/gcc/pic32mx/4.8.3/../../../../pic32mx/lib/libm.a(fptodp.o)

.text%z335      0x00000000        0x0
 .text          0x00000000        0x0 /Applications/microchip/xc32/v2.10/bin/bin/../../lib/gcc/pic32mx/4.8.3/../../../../pic32mx/lib/libm.a(fpmodf.o)

.text%z336      0x00000000        0x0
 .text          0x00000000        0x0 /Applications/microchip/xc32/v2.10/bin/bin/../../lib/gcc/pic32mx/4.8.3/../../../../pic32mx/lib/libm.a(fpfloo32.o)

.text%z337      0x00000000        0x0
 .text          0x00000000        0x0 /Applications/microchip/xc32/v2.10/bin/bin/../../lib/gcc/pic32mx/4.8.3/../../../../pic32mx/lib/libm.a(fpcmp.o)

.text%z338      0x00000000        0x0
 .text          0x00000000        0x0 /Applications/microchip/xc32/v2.10/bin/bin/../../lib/gcc/pic32mx/4.8.3/../../../../pic32mx/lib/libm.a(fp32subadd.o)

.text%z339      0x00000000        0x0
 .text          0x00000000        0x0 /Applications/microchip/xc32/v2.10/bin/bin/../../lib/gcc/pic32mx/4.8.3/../../../../pic32mx/lib/libm.a(fp32mul.o)

.text%z340      0x00000000        0x0
 .text          0x00000000        0x0 /Applications/microchip/xc32/v2.10/bin/bin/../../lib/gcc/pic32mx/4.8.3/../../../../pic32mx/lib/libm.a(fp32div.o)

.text%z341      0x00000000        0x0
 .text          0x00000000        0x0 /Applications/microchip/xc32/v2.10/bin/bin/../../lib/gcc/pic32mx/4.8.3/../../../../pic32mx/lib/libm.a(dptofp.o)

.text%z342      0x00000000        0x0
 .text          0x00000000        0x0 /Applications/microchip/xc32/v2.10/bin/bin/../../lib/gcc/pic32mx/4.8.3/../../../../pic32mx/lib/liblega-c.a(_bufproc.o)

.text%z343      0x00000000        0x0
 .text          0x00000000        0x0 /Applications/microchip/xc32/v2.10/bin/bin/../../lib/gcc/pic32mx/4.8.3/../../../../pic32mx/lib/liblega-c.a(_cleanup.o)

.text%z344      0x00000000        0x0
 .text          0x00000000        0x0 /Applications/microchip/xc32/v2.10/bin/bin/../../lib/gcc/pic32mx/4.8.3/../../../../pic32mx/lib/liblega-c.a(_ioinit.o)

.text%z345      0x00000000        0x0
 .text          0x00000000        0x0 /Applications/microchip/xc32/v2.10/bin/bin/../../lib/gcc/pic32mx/4.8.3/../../../../pic32mx/lib/liblega-c.a(ungetc.o)

.text%z346      0x00000000        0x0
 .text          0x00000000        0x0 /Applications/microchip/xc32/v2.10/bin/bin/../../lib/gcc/pic32mx/4.8.3/../../../../pic32mx/lib/liblega-c.a(fgetc.o)

.text%z347      0x00000000        0x0
 .text          0x00000000        0x0 /Applications/microchip/xc32/v2.10/bin/bin/../../lib/gcc/pic32mx/4.8.3/../../../../pic32mx/lib/liblega-c.a(_doprnt.o)

.text%z348      0x00000000        0x0
 .text          0x00000000        0x0 /Applications/microchip/xc32/v2.10/bin/bin/../../lib/gcc/pic32mx/4.8.3/../../../../pic32mx/lib/liblega-c.a(fullexit.o)

.text%z349      0x00000000        0x0
 .text          0x00000000        0x0 /Applications/microchip/xc32/v2.10/bin/bin/../../lib/gcc/pic32mx/4.8.3/../../../../pic32mx/lib/liblega-c.a(strtof.o)

.text%z350      0x00000000        0x0
 .text          0x00000000        0x0 /Applications/microchip/xc32/v2.10/bin/bin/../../lib/gcc/pic32mx/4.8.3/../../../../pic32mx/lib/liblega-c.a(strtod.o)

.text%z351      0x00000000        0x0
 .text          0x00000000        0x0 /Applications/microchip/xc32/v2.10/bin/bin/../../lib/gcc/pic32mx/4.8.3/../../../../pic32mx/lib/liblega-c.a(strtoull.o)

.text%z352      0x00000000        0x0
 .text          0x00000000        0x0 /Applications/microchip/xc32/v2.10/bin/bin/../../lib/gcc/pic32mx/4.8.3/../../../../pic32mx/lib/liblega-c.a(strtoll.o)

.text%z353      0x00000000        0x0
 .text          0x00000000        0x0 /Applications/microchip/xc32/v2.10/bin/bin/../../lib/gcc/pic32mx/4.8.3/../../../../pic32mx/lib/liblega-c.a(strtoul.o)

.text%z354      0x00000000        0x0
 .text          0x00000000        0x0 /Applications/microchip/xc32/v2.10/bin/bin/../../lib/gcc/pic32mx/4.8.3/../../../../pic32mx/lib/liblega-c.a(malloc_realloc.o)

.text%z355      0x00000000        0x0
 .text          0x00000000        0x0 /Applications/microchip/xc32/v2.10/bin/bin/../../lib/gcc/pic32mx/4.8.3/../../../../pic32mx/lib/liblega-c.a(malloc.o)

.text%z356      0x00000000        0x0
 .text          0x00000000        0x0 /Applications/microchip/xc32/v2.10/bin/bin/../../lib/gcc/pic32mx/4.8.3/../../../../pic32mx/lib/liblega-c.a(abort.o)

.text%z357      0x00000000        0x0
 .text          0x00000000        0x0 /Applications/microchip/xc32/v2.10/bin/bin/../../lib/gcc/pic32mx/4.8.3/../../../../pic32mx/lib/liblega-c.a(fprintf.o)

.text%z358      0x00000000        0x0
 .text          0x00000000        0x0 /Applications/microchip/xc32/v2.10/bin/bin/../../lib/gcc/pic32mx/4.8.3/../../../../pic32mx/lib/liblega-c.a(_doscan.o)

.text%z359      0x00000000        0x0
 .text          0x00000000        0x0 /Applications/microchip/xc32/v2.10/bin/bin/../../lib/gcc/pic32mx/4.8.3/../../../../pic32mx/lib/liblega-c.a(fputc.o)

.text%z360      0x00000000        0x0
 .text          0x00000000        0x0 /Applications/microchip/xc32/v2.10/bin/bin/../../lib/gcc/pic32mx/4.8.3/../../../../pic32mx/lib/liblega-c.a(_iobstring.o)

.text%z361      0x00000000        0x0
 .text          0x00000000        0x0 /Applications/microchip/xc32/v2.10/bin/bin/../../lib/gcc/pic32mx/4.8.3/../../../../pic32mx/lib/liblega-c.a(_iobfuncs.o)

.text%z362      0x00000000        0x0
 .text          0x00000000        0x0 /Applications/microchip/xc32/v2.10/bin/bin/../../lib/gcc/pic32mx/4.8.3/../../../../pic32mx/lib/liblega-c.a(_iobdata.o)

.text%z363      0x00000000        0x0
 .text          0x00000000        0x0 /Applications/microchip/xc32/v2.10/bin/bin/../../lib/gcc/pic32mx/4.8.3/../../../../pic32mx/lib/liblega-c.a(_doprnt_cdnopsuxX.eo)

.text%z364      0x00000000        0x0
 .text          0x00000000        0x0 /Applications/microchip/xc32/v2.10/bin/bin/../../lib/gcc/pic32mx/4.8.3/../../../../pic32mx/lib/liblega-c.a(errno.o)

.text%z365      0x00000000        0x0
 .text          0x00000000        0x0 /Applications/microchip/xc32/v2.10/bin/bin/../../lib/gcc/pic32mx/4.8.3/../../../../pic32mx/lib/liblega-c.a(fassert.o)

.text%z366      0x00000000        0x0
 .text          0x00000000        0x0 /Applications/microchip/xc32/v2.10/bin/bin/../../lib/gcc/pic32mx/4.8.3/../../../../pic32mx/lib/liblega-c.a(stubs.o)

.text%z367      0x00000000        0x0
 .text          0x00000000        0x0 /Applications/microchip/xc32/v2.10/bin/bin/../../lib/gcc/pic32mx/4.8.3/../../../../pic32mx/lib/liblega-c.a(sscanf_cdnopuxX.eo)

.text%z368      0x00000000        0x0
 .text          0x00000000        0x0 /Applications/microchip/xc32/v2.10/bin/bin/../../lib/gcc/pic32mx/4.8.3/../../../../pic32mx/lib/liblega-c.a(sprintf_cdnopsuxX.eo)

.text%z369      0x00000000        0x0
 .text          0x00000000        0x0 /Applications/microchip/xc32/v2.10/bin/bin/../../lib/gcc/pic32mx/4.8.3/../../../../pic32mx/lib/liblega-c.a(printf_cdnopuxX.eo)

.text%z370      0x00000000        0x0
 .text          0x00000000        0x0 /Applications/microchip/xc32/v2.10/bin/bin/../../lib/gcc/pic32mx/4.8.3/../../../../pic32mx/lib/liblega-c.a(strtol.o)

.text%z371      0x00000000        0x0
 .text          0x00000000        0x0 /Applications/microchip/xc32/v2.10/bin/bin/../../lib/gcc/pic32mx/4.8.3/../../../../pic32mx/lib/liblega-c.a(rand.o)

.text%z372      0x00000000        0x0
 .text          0x00000000        0x0 /Applications/microchip/xc32/v2.10/bin/bin/../../lib/gcc/pic32mx/4.8.3/../../../../pic32mx/lib/liblega-c.a(ctypef.o)

.text%z373      0x00000000        0x0
 .text          0x00000000        0x0 /Applications/microchip/xc32/v2.10/bin/bin/../../lib/gcc/pic32mx/4.8.3/../../../../pic32mx/lib/liblega-c.a(ctype.o)

.text%z374      0x00000000        0x0
 .text          0x00000000        0x0 /Applications/microchip/xc32/v2.10/bin/bin/../../lib/gcc/pic32mx/4.8.3/../../../../pic32mx/lib/liblega-c.a(memmove.o)

.text%z375      0x00000000        0x0
 .text          0x00000000        0x0 /Applications/microchip/xc32/v2.10/bin/bin/../../lib/gcc/pic32mx/4.8.3/../../../../pic32mx/lib/liblega-c.a(strchr.o)

.text%z376      0x00000000        0x0
 .text          0x00000000        0x0 /Applications/microchip/xc32/v2.10/bin/bin/../../lib/gcc/pic32mx/4.8.3/../../../../pic32mx/lib/liblega-c.a(strncpy.o)

.text%z377      0x00000000        0x0
 .text          0x00000000        0x0 /Applications/microchip/xc32/v2.10/bin/bin/../../lib/gcc/pic32mx/4.8.3/../../../../pic32mx/lib/liblega-c.a(strncmp.o)

.text%z378      0x00000000        0x0
 .text          0x00000000        0x0 /Applications/microchip/xc32/v2.10/bin/bin/../../lib/gcc/pic32mx/4.8.3/../../../../pic32mx/lib/liblega-c.a(strcat.o)

.text%z379      0x00000000        0x0
 .text          0x00000000        0x0 /Applications/microchip/xc32/v2.10/bin/bin/../../lib/gcc/pic32mx/4.8.3/../../../../pic32mx/lib/libpic32.a(defaultinterrupt.o)

.text%z380      0x00000000        0x0
 .text          0x00000000        0x0 /Applications/microchip/xc32/v2.10/bin/bin/../../lib/gcc/pic32mx/4.8.3/../../../../pic32mx/lib/libpic32.a(default-general-exception-handler.o)

.text%z381      0x00000000        0x0
 .text          0x00000000        0x0 /Applications/microchip/xc32/v2.10/bin/bin/../../lib/gcc/pic32mx/4.8.3/../../../../pic32mx/lib/libpic32.a(vector45.o)

.text%z382      0x00000000        0x0
 .text          0x00000000        0x0 /Applications/microchip/xc32/v2.10/bin/bin/../../lib/gcc/pic32mx/4.8.3/../../../../pic32mx/lib/libpic32.a(vector44.o)

.text%z383      0x00000000        0x0
 .text          0x00000000        0x0 /Applications/microchip/xc32/v2.10/bin/bin/../../lib/gcc/pic32mx/4.8.3/../../../../pic32mx/lib/libpic32.a(vector43.o)

.text%z384      0x00000000        0x0
 .text          0x00000000        0x0 /Applications/microchip/xc32/v2.10/bin/bin/../../lib/gcc/pic32mx/4.8.3/../../../../pic32mx/lib/libpic32.a(vector42.o)

.text%z385      0x00000000        0x0
 .text          0x00000000        0x0 /Applications/microchip/xc32/v2.10/bin/bin/../../lib/gcc/pic32mx/4.8.3/../../../../pic32mx/lib/libpic32.a(vector41.o)

.text%z386      0x00000000        0x0
 .text          0x00000000        0x0 /Applications/microchip/xc32/v2.10/bin/bin/../../lib/gcc/pic32mx/4.8.3/../../../../pic32mx/lib/libpic32.a(vector40.o)

.text%z387      0x00000000        0x0
 .text          0x00000000        0x0 /Applications/microchip/xc32/v2.10/bin/bin/../../lib/gcc/pic32mx/4.8.3/../../../../pic32mx/lib/libpic32.a(vector39.o)

.text%z388      0x00000000        0x0
 .text          0x00000000        0x0 /Applications/microchip/xc32/v2.10/bin/bin/../../lib/gcc/pic32mx/4.8.3/../../../../pic32mx/lib/libpic32.a(vector38.o)

.text%z389      0x00000000        0x0
 .text          0x00000000        0x0 /Applications/microchip/xc32/v2.10/bin/bin/../../lib/gcc/pic32mx/4.8.3/../../../../pic32mx/lib/libpic32.a(vector37.o)

.text%z390      0x00000000        0x0
 .text          0x00000000        0x0 /Applications/microchip/xc32/v2.10/bin/bin/../../lib/gcc/pic32mx/4.8.3/../../../../pic32mx/lib/libpic32.a(vector36.o)

.text%z391      0x00000000        0x0
 .text          0x00000000        0x0 /Applications/microchip/xc32/v2.10/bin/bin/../../lib/gcc/pic32mx/4.8.3/../../../../pic32mx/lib/libpic32.a(vector35.o)

.text%z392      0x00000000        0x0
 .text          0x00000000        0x0 /Applications/microchip/xc32/v2.10/bin/bin/../../lib/gcc/pic32mx/4.8.3/../../../../pic32mx/lib/libpic32.a(vector34.o)

.text%z393      0x00000000        0x0
 .text          0x00000000        0x0 /Applications/microchip/xc32/v2.10/bin/bin/../../lib/gcc/pic32mx/4.8.3/../../../../pic32mx/lib/libpic32.a(vector33.o)

.text%z394      0x00000000        0x0
 .text          0x00000000        0x0 /Applications/microchip/xc32/v2.10/bin/bin/../../lib/gcc/pic32mx/4.8.3/../../../../pic32mx/lib/libpic32.a(vector32.o)

.text%z395      0x00000000        0x0
 .text          0x00000000        0x0 /Applications/microchip/xc32/v2.10/bin/bin/../../lib/gcc/pic32mx/4.8.3/../../../../pic32mx/lib/libpic32.a(vector31.o)

.text%z396      0x00000000        0x0
 .text          0x00000000        0x0 /Applications/microchip/xc32/v2.10/bin/bin/../../lib/gcc/pic32mx/4.8.3/../../../../pic32mx/lib/libpic32.a(vector30.o)

.text%z397      0x00000000        0x0
 .text          0x00000000        0x0 /Applications/microchip/xc32/v2.10/bin/bin/../../lib/gcc/pic32mx/4.8.3/../../../../pic32mx/lib/libpic32.a(vector29.o)

.text%z398      0x00000000        0x0
 .text          0x00000000        0x0 /Applications/microchip/xc32/v2.10/bin/bin/../../lib/gcc/pic32mx/4.8.3/../../../../pic32mx/lib/libpic32.a(vector28.o)

.text%z399      0x00000000        0x0
 .text          0x00000000        0x0 /Applications/microchip/xc32/v2.10/bin/bin/../../lib/gcc/pic32mx/4.8.3/../../../../pic32mx/lib/libpic32.a(vector27.o)

.text%z400      0x00000000        0x0
 .text          0x00000000        0x0 /Applications/microchip/xc32/v2.10/bin/bin/../../lib/gcc/pic32mx/4.8.3/../../../../pic32mx/lib/libpic32.a(vector26.o)

.text%z401      0x00000000        0x0
 .text          0x00000000        0x0 /Applications/microchip/xc32/v2.10/bin/bin/../../lib/gcc/pic32mx/4.8.3/../../../../pic32mx/lib/libpic32.a(vector25.o)

.text%z402      0x00000000        0x0
 .text          0x00000000        0x0 /Applications/microchip/xc32/v2.10/bin/bin/../../lib/gcc/pic32mx/4.8.3/../../../../pic32mx/lib/libpic32.a(vector24.o)

.text%z403      0x00000000        0x0
 .text          0x00000000        0x0 /Applications/microchip/xc32/v2.10/bin/bin/../../lib/gcc/pic32mx/4.8.3/../../../../pic32mx/lib/libpic32.a(vector23.o)

.text%z404      0x00000000        0x0
 .text          0x00000000        0x0 /Applications/microchip/xc32/v2.10/bin/bin/../../lib/gcc/pic32mx/4.8.3/../../../../pic32mx/lib/libpic32.a(vector22.o)

.text%z405      0x00000000        0x0
 .text          0x00000000        0x0 /Applications/microchip/xc32/v2.10/bin/bin/../../lib/gcc/pic32mx/4.8.3/../../../../pic32mx/lib/libpic32.a(vector21.o)

.text%z406      0x00000000        0x0
 .text          0x00000000        0x0 /Applications/microchip/xc32/v2.10/bin/bin/../../lib/gcc/pic32mx/4.8.3/../../../../pic32mx/lib/libpic32.a(vector19.o)

.text%z407      0x00000000        0x0
 .text          0x00000000        0x0 /Applications/microchip/xc32/v2.10/bin/bin/../../lib/gcc/pic32mx/4.8.3/../../../../pic32mx/lib/libpic32.a(vector18.o)

.text%z408      0x00000000        0x0
 .text          0x00000000        0x0 /Applications/microchip/xc32/v2.10/bin/bin/../../lib/gcc/pic32mx/4.8.3/../../../../pic32mx/lib/libpic32.a(vector17.o)

.text%z409      0x00000000        0x0
 .text          0x00000000        0x0 /Applications/microchip/xc32/v2.10/bin/bin/../../lib/gcc/pic32mx/4.8.3/../../../../pic32mx/lib/libpic32.a(vector15.o)

.text%z410      0x00000000        0x0
 .text          0x00000000        0x0 /Applications/microchip/xc32/v2.10/bin/bin/../../lib/gcc/pic32mx/4.8.3/../../../../pic32mx/lib/libpic32.a(vector14.o)

.text%z411      0x00000000        0x0
 .text          0x00000000        0x0 /Applications/microchip/xc32/v2.10/bin/bin/../../lib/gcc/pic32mx/4.8.3/../../../../pic32mx/lib/libpic32.a(vector13.o)

.text%z412      0x00000000        0x0
 .text          0x00000000        0x0 /Applications/microchip/xc32/v2.10/bin/bin/../../lib/gcc/pic32mx/4.8.3/../../../../pic32mx/lib/libpic32.a(vector10.o)

.text%z413      0x00000000        0x0
 .text          0x00000000        0x0 /Applications/microchip/xc32/v2.10/bin/bin/../../lib/gcc/pic32mx/4.8.3/../../../../pic32mx/lib/libpic32.a(vector9.o)

.text%z414      0x00000000        0x0
 .text          0x00000000        0x0 /Applications/microchip/xc32/v2.10/bin/bin/../../lib/gcc/pic32mx/4.8.3/../../../../pic32mx/lib/libpic32.a(vector7.o)

.text%z415      0x00000000        0x0
 .text          0x00000000        0x0 /Applications/microchip/xc32/v2.10/bin/bin/../../lib/gcc/pic32mx/4.8.3/../../../../pic32mx/lib/libpic32.a(vector6.o)

.text%z416      0x00000000        0x0
 .text          0x00000000        0x0 /Applications/microchip/xc32/v2.10/bin/bin/../../lib/gcc/pic32mx/4.8.3/../../../../pic32mx/lib/libpic32.a(vector5.o)

.text%z417      0x00000000        0x0
 .text          0x00000000        0x0 /Applications/microchip/xc32/v2.10/bin/bin/../../lib/gcc/pic32mx/4.8.3/../../../../pic32mx/lib/libpic32.a(vector3.o)

.text%z418      0x00000000        0x0
 .text          0x00000000        0x0 /Applications/microchip/xc32/v2.10/bin/bin/../../lib/gcc/pic32mx/4.8.3/../../../../pic32mx/lib/libpic32.a(vector2.o)

.text%z419      0x00000000        0x0
 .text          0x00000000        0x0 /Applications/microchip/xc32/v2.10/bin/bin/../../lib/gcc/pic32mx/4.8.3/../../../../pic32mx/lib/libpic32.a(vector1.o)

.text%z420      0x00000000        0x0
 .text          0x00000000        0x0 /Applications/microchip/xc32/v2.10/bin/bin/../../lib/gcc/pic32mx/4.8.3/../../../../pic32mx/lib/libpic32.a(vector0.o)

.text%z421      0x00000000        0x0
 .text          0x00000000        0x0 /Applications/microchip/xc32/v2.10/bin/bin/../../lib/gcc/pic32mx/4.8.3/../../../../pic32mx/lib/libpic32.a(general-exception.o)

.text%z422      0x00000000        0x0
 .text          0x00000000        0x0 /Applications/microchip/xc32/v2.10/bin/bin/../../lib/gcc/pic32mx/4.8.3/../../../../pic32mx/lib/libpic32.a(default-on-bootstrap.o)

.text%z423      0x00000000        0x0
 .text          0x00000000        0x0 /Applications/microchip/xc32/v2.10/bin/bin/../../lib/gcc/pic32mx/4.8.3/../../../../pic32mx/lib/libpic32.a(default-on-reset.o)

.text%z424      0x00000000        0x0
 .text          0x00000000        0x0 /Applications/microchip/xc32/v2.10/bin/bin/../../lib/gcc/pic32mx/4.8.3/../../../../pic32mx/lib/libpic32.a(default-bootstrap-exception-handler.o)

.text%z425      0x00000000        0x0
 .text          0x00000000        0x0 /Applications/microchip/xc32/v2.10/bin/bin/../../lib/gcc/pic32mx/4.8.3/../../../../pic32mx/lib/libmchp_peripheral_32MX370F512H.a(int_enable_interrupts_lib.o)

.text%z426      0x00000000        0x0
 .text          0x00000000        0x0 /Applications/microchip/xc32/v2.10/bin/bin/../../lib/gcc/pic32mx/4.8.3/../../../../pic32mx/lib/libmchp_peripheral_32MX370F512H.a(int_enable_mv_int_lib.o)

.text%z427      0x00000000        0x0
 .text          0x00000000        0x0 /Applications/microchip/xc32/v2.10/bin/bin/../../lib/gcc/pic32mx/4.8.3/../../../../pic32mx/lib/libmchp_peripheral_32MX370F512H.a(int_restore_interrupts_lib.o)

.text%z428      0x00000000        0x0
 .text          0x00000000        0x0 /Applications/microchip/xc32/v2.10/bin/bin/../../lib/gcc/pic32mx/4.8.3/../../../../pic32mx/lib/libmchp_peripheral_32MX370F512H.a(int_disable_interrupts_lib.o)

.text%z429      0x00000000        0x0
 .text          0x00000000        0x0 /Applications/microchip/xc32/v2.10/bin/bin/../../lib/gcc/pic32mx/4.8.3/../../../../pic32mx/lib/libmchp_peripheral_32MX370F512H.a(pcache.o)

.text%z430      0x00000000        0x0
 .text          0x00000000        0x0 /Applications/microchip/xc32/v2.10/bin/bin/../../lib/gcc/pic32mx/4.8.3/../../../../pic32mx/lib/./proc/32MX370F512H/processor.o

.text%z431      0x00000000        0x0
 .text          0x00000000        0x0 /Applications/microchip/xc32/v2.10/bin/bin/../../lib/gcc/pic32mx/4.8.3/../../../../pic32mx/lib/./proc/32MX370F512H/default_isr_vectors.o

.text%z432      0x00000000        0x0
 .text          0x00000000        0x0 build/default/production/src/images.o

.text%z433      0x00000000        0x0
 .text          0x00000000        0x0 build/default/production/src/Z80/simglb.o

.text%z434      0x00000000        0x0
 .text          0x00000000        0x0 /Applications/microchip/xc32/v2.10/bin/bin/../../lib/gcc/pic32mx/4.8.3/../../../../pic32mx/lib/debug-exception-return.o

.text%z435      0x00000000        0x0
 .text          0x00000000        0x0 /Applications/microchip/xc32/v2.10/bin/bin/../../lib/gcc/pic32mx/4.8.3/../../../../pic32mx/lib/./proc/32MX370F512H/crt0_mips32r2.o
